Archive member included to satisfy reference by file (symbol)

/usr/lib/gcc/arm-none-eabi/4.9.3/../../../arm-none-eabi/lib/armv7e-m/fpu/libm.a(lib_a-sf_fpclassify.o)
                              build/obj/attitude.o (symbol from plugin) (__fpclassifyf)
/usr/lib/gcc/arm-none-eabi/4.9.3/../../../arm-none-eabi/lib/armv7e-m/fpu/libm.a(lib_a-sf_cos.o)
                              /tmp/cc0IPsVg.ltrans1.ltrans.o (cosf)
/usr/lib/gcc/arm-none-eabi/4.9.3/../../../arm-none-eabi/lib/armv7e-m/fpu/libm.a(lib_a-sf_sin.o)
                              /tmp/cc0IPsVg.ltrans1.ltrans.o (sinf)
/usr/lib/gcc/arm-none-eabi/4.9.3/../../../arm-none-eabi/lib/armv7e-m/fpu/libm.a(lib_a-sf_tan.o)
                              /tmp/cc0IPsVg.ltrans12.ltrans.o (tanf)
/usr/lib/gcc/arm-none-eabi/4.9.3/../../../arm-none-eabi/lib/armv7e-m/fpu/libm.a(lib_a-wf_asin.o)
                              /tmp/cc0IPsVg.ltrans1.ltrans.o (asinf)
/usr/lib/gcc/arm-none-eabi/4.9.3/../../../arm-none-eabi/lib/armv7e-m/fpu/libm.a(lib_a-wf_atan2.o)
                              /tmp/cc0IPsVg.ltrans1.ltrans.o (atan2f)
/usr/lib/gcc/arm-none-eabi/4.9.3/../../../arm-none-eabi/lib/armv7e-m/fpu/libm.a(lib_a-wf_sqrt.o)
                              /tmp/cc0IPsVg.ltrans1.ltrans.o (sqrtf)
/usr/lib/gcc/arm-none-eabi/4.9.3/../../../arm-none-eabi/lib/armv7e-m/fpu/libm.a(lib_a-ef_asin.o)
                              /usr/lib/gcc/arm-none-eabi/4.9.3/../../../arm-none-eabi/lib/armv7e-m/fpu/libm.a(lib_a-wf_asin.o) (__ieee754_asinf)
/usr/lib/gcc/arm-none-eabi/4.9.3/../../../arm-none-eabi/lib/armv7e-m/fpu/libm.a(lib_a-ef_atan2.o)
                              /usr/lib/gcc/arm-none-eabi/4.9.3/../../../arm-none-eabi/lib/armv7e-m/fpu/libm.a(lib_a-wf_atan2.o) (__ieee754_atan2f)
/usr/lib/gcc/arm-none-eabi/4.9.3/../../../arm-none-eabi/lib/armv7e-m/fpu/libm.a(lib_a-ef_rem_pio2.o)
                              /usr/lib/gcc/arm-none-eabi/4.9.3/../../../arm-none-eabi/lib/armv7e-m/fpu/libm.a(lib_a-sf_cos.o) (__ieee754_rem_pio2f)
/usr/lib/gcc/arm-none-eabi/4.9.3/../../../arm-none-eabi/lib/armv7e-m/fpu/libm.a(lib_a-ef_sqrt.o)
                              /usr/lib/gcc/arm-none-eabi/4.9.3/../../../arm-none-eabi/lib/armv7e-m/fpu/libm.a(lib_a-wf_sqrt.o) (__ieee754_sqrtf)
/usr/lib/gcc/arm-none-eabi/4.9.3/../../../arm-none-eabi/lib/armv7e-m/fpu/libm.a(lib_a-kf_cos.o)
                              /usr/lib/gcc/arm-none-eabi/4.9.3/../../../arm-none-eabi/lib/armv7e-m/fpu/libm.a(lib_a-sf_cos.o) (__kernel_cosf)
/usr/lib/gcc/arm-none-eabi/4.9.3/../../../arm-none-eabi/lib/armv7e-m/fpu/libm.a(lib_a-kf_rem_pio2.o)
                              /usr/lib/gcc/arm-none-eabi/4.9.3/../../../arm-none-eabi/lib/armv7e-m/fpu/libm.a(lib_a-ef_rem_pio2.o) (__kernel_rem_pio2f)
/usr/lib/gcc/arm-none-eabi/4.9.3/../../../arm-none-eabi/lib/armv7e-m/fpu/libm.a(lib_a-kf_sin.o)
                              /usr/lib/gcc/arm-none-eabi/4.9.3/../../../arm-none-eabi/lib/armv7e-m/fpu/libm.a(lib_a-sf_cos.o) (__kernel_sinf)
/usr/lib/gcc/arm-none-eabi/4.9.3/../../../arm-none-eabi/lib/armv7e-m/fpu/libm.a(lib_a-kf_tan.o)
                              /usr/lib/gcc/arm-none-eabi/4.9.3/../../../arm-none-eabi/lib/armv7e-m/fpu/libm.a(lib_a-sf_tan.o) (__kernel_tanf)
/usr/lib/gcc/arm-none-eabi/4.9.3/../../../arm-none-eabi/lib/armv7e-m/fpu/libm.a(lib_a-s_lib_ver.o)
                              /usr/lib/gcc/arm-none-eabi/4.9.3/../../../arm-none-eabi/lib/armv7e-m/fpu/libm.a(lib_a-wf_asin.o) (__fdlib_version)
/usr/lib/gcc/arm-none-eabi/4.9.3/../../../arm-none-eabi/lib/armv7e-m/fpu/libm.a(lib_a-s_matherr.o)
                              /usr/lib/gcc/arm-none-eabi/4.9.3/../../../arm-none-eabi/lib/armv7e-m/fpu/libm.a(lib_a-wf_asin.o) (matherr)
/usr/lib/gcc/arm-none-eabi/4.9.3/../../../arm-none-eabi/lib/armv7e-m/fpu/libm.a(lib_a-s_nan.o)
                              /usr/lib/gcc/arm-none-eabi/4.9.3/../../../arm-none-eabi/lib/armv7e-m/fpu/libm.a(lib_a-wf_asin.o) (nan)
/usr/lib/gcc/arm-none-eabi/4.9.3/../../../arm-none-eabi/lib/armv7e-m/fpu/libm.a(lib_a-sf_atan.o)
                              /usr/lib/gcc/arm-none-eabi/4.9.3/../../../arm-none-eabi/lib/armv7e-m/fpu/libm.a(lib_a-ef_atan2.o) (atanf)
/usr/lib/gcc/arm-none-eabi/4.9.3/../../../arm-none-eabi/lib/armv7e-m/fpu/libm.a(lib_a-sf_fabs.o)
                              /usr/lib/gcc/arm-none-eabi/4.9.3/../../../arm-none-eabi/lib/armv7e-m/fpu/libm.a(lib_a-wf_asin.o) (fabsf)
/usr/lib/gcc/arm-none-eabi/4.9.3/../../../arm-none-eabi/lib/armv7e-m/fpu/libm.a(lib_a-sf_floor.o)
                              /usr/lib/gcc/arm-none-eabi/4.9.3/../../../arm-none-eabi/lib/armv7e-m/fpu/libm.a(lib_a-kf_rem_pio2.o) (floorf)
/usr/lib/gcc/arm-none-eabi/4.9.3/../../../arm-none-eabi/lib/armv7e-m/fpu/libm.a(lib_a-sf_scalbn.o)
                              /usr/lib/gcc/arm-none-eabi/4.9.3/../../../arm-none-eabi/lib/armv7e-m/fpu/libm.a(lib_a-kf_rem_pio2.o) (scalbnf)
/usr/lib/gcc/arm-none-eabi/4.9.3/../../../arm-none-eabi/lib/armv7e-m/fpu/libm.a(lib_a-sf_copysign.o)
                              /usr/lib/gcc/arm-none-eabi/4.9.3/../../../arm-none-eabi/lib/armv7e-m/fpu/libm.a(lib_a-sf_scalbn.o) (copysignf)
/usr/lib/gcc/arm-none-eabi/4.9.3/armv7e-m/fpu/libgcc.a(_arm_addsubdf3.o)
                              /tmp/cc0IPsVg.ltrans5.ltrans.o (__aeabi_dsub)
/usr/lib/gcc/arm-none-eabi/4.9.3/armv7e-m/fpu/libgcc.a(_arm_muldivdf3.o)
                              /tmp/cc0IPsVg.ltrans5.ltrans.o (__aeabi_dmul)
/usr/lib/gcc/arm-none-eabi/4.9.3/armv7e-m/fpu/libgcc.a(_arm_fixdfsi.o)
                              /tmp/cc0IPsVg.ltrans5.ltrans.o (__aeabi_d2iz)
/usr/lib/gcc/arm-none-eabi/4.9.3/armv7e-m/fpu/libgcc.a(_arm_truncdfsf2.o)
                              /tmp/cc0IPsVg.ltrans5.ltrans.o (__aeabi_d2f)
/usr/lib/gcc/arm-none-eabi/4.9.3/../../../arm-none-eabi/lib/armv7e-m/fpu/libg.a(lib_a-errno.o)
                              /usr/lib/gcc/arm-none-eabi/4.9.3/../../../arm-none-eabi/lib/armv7e-m/fpu/libm.a(lib_a-wf_asin.o) (__errno)
/usr/lib/gcc/arm-none-eabi/4.9.3/../../../arm-none-eabi/lib/armv7e-m/fpu/libg.a(lib_a-impure.o)
                              /usr/lib/gcc/arm-none-eabi/4.9.3/../../../arm-none-eabi/lib/armv7e-m/fpu/libg.a(lib_a-errno.o) (_impure_ptr)
/usr/lib/gcc/arm-none-eabi/4.9.3/../../../arm-none-eabi/lib/armv7e-m/fpu/libg.a(lib_a-memcpy.o)
                              /tmp/cc0IPsVg.ltrans4.ltrans.o (memcpy)
/usr/lib/gcc/arm-none-eabi/4.9.3/../../../arm-none-eabi/lib/armv7e-m/fpu/libg.a(lib_a-memset.o)
                              /tmp/cc0IPsVg.ltrans0.ltrans.o (memset)
/usr/lib/gcc/arm-none-eabi/4.9.3/../../../arm-none-eabi/lib/armv7e-m/fpu/libg.a(lib_a-strcmp.o)
                              /tmp/cc0IPsVg.ltrans5.ltrans.o (strcmp)
/usr/lib/gcc/arm-none-eabi/4.9.3/../../../arm-none-eabi/lib/armv7e-m/fpu/libg.a(lib_a-strlen.o)
                              /tmp/cc0IPsVg.ltrans12.ltrans.o (strlen)
/usr/lib/gcc/arm-none-eabi/4.9.3/../../../arm-none-eabi/lib/armv7e-m/fpu/libg.a(lib_a-strpbrk.o)
                              /tmp/cc0IPsVg.ltrans14.ltrans.o (strpbrk)
/usr/lib/gcc/arm-none-eabi/4.9.3/../../../arm-none-eabi/lib/armv7e-m/fpu/libg.a(lib_a-strspn.o)
                              /tmp/cc0IPsVg.ltrans14.ltrans.o (strspn)

Discarded input sections

 .data          0x0000000000000000        0x0 build/obj/crt0_v7m.o
 .bss           0x0000000000000000        0x0 build/obj/crt0_v7m.o
 .data          0x0000000000000000        0x0 build/obj/chcoreasm_v7m.o
 .bss           0x0000000000000000        0x0 build/obj/chcoreasm_v7m.o
 .text          0x0000000000000000        0x0 build/obj/crt1.o (symbol from plugin)
 .text          0x0000000000000000        0x0 /tmp/cc0IPsVg.ltrans0.ltrans.o
 .data          0x0000000000000000        0x0 /tmp/cc0IPsVg.ltrans0.ltrans.o
 .bss           0x0000000000000000        0x0 /tmp/cc0IPsVg.ltrans0.ltrans.o
 .ARM.extab.text.startup.main
                0x0000000000000000        0x0 /tmp/cc0IPsVg.ltrans0.ltrans.o
 .text          0x0000000000000000        0x0 /tmp/cc0IPsVg.ltrans1.ltrans.o
 .data          0x0000000000000000        0x0 /tmp/cc0IPsVg.ltrans1.ltrans.o
 .bss           0x0000000000000000        0x0 /tmp/cc0IPsVg.ltrans1.ltrans.o
 .ARM.extab.text._ZL15Attitude_threadPv.lto_priv.83
                0x0000000000000000        0x0 /tmp/cc0IPsVg.ltrans1.ltrans.o
 .text          0x0000000000000000        0x0 /tmp/cc0IPsVg.ltrans2.ltrans.o
 .data          0x0000000000000000        0x0 /tmp/cc0IPsVg.ltrans2.ltrans.o
 .bss           0x0000000000000000        0x0 /tmp/cc0IPsVg.ltrans2.ltrans.o
 .ARM.extab.text.SVC_Handler
                0x0000000000000000        0x0 /tmp/cc0IPsVg.ltrans2.ltrans.o
 .ARM.extab.text._idle_thread.lto_priv.99
                0x0000000000000000        0x0 /tmp/cc0IPsVg.ltrans2.ltrans.o
 .ARM.extab.text.stSetAlarm
                0x0000000000000000        0x0 /tmp/cc0IPsVg.ltrans2.ltrans.o
 .ARM.extab.text._port_irq_epilogue
                0x0000000000000000        0x0 /tmp/cc0IPsVg.ltrans2.ltrans.o
 .ARM.extab.text._stats_increase_irq
                0x0000000000000000        0x0 /tmp/cc0IPsVg.ltrans2.ltrans.o
 .ARM.extab.text.chTMChainMeasurementToX
                0x0000000000000000        0x0 /tmp/cc0IPsVg.ltrans2.ltrans.o
 .ARM.extab.text.chTMStopMeasurementX
                0x0000000000000000        0x0 /tmp/cc0IPsVg.ltrans2.ltrans.o
 .ARM.extab.text._stats_stop_measure_crit_isr
                0x0000000000000000        0x0 /tmp/cc0IPsVg.ltrans2.ltrans.o
 .ARM.extab.text._stats_stop_measure_crit_thd
                0x0000000000000000        0x0 /tmp/cc0IPsVg.ltrans2.ltrans.o
 .ARM.extab.text.chTMStartMeasurementX
                0x0000000000000000        0x0 /tmp/cc0IPsVg.ltrans2.ltrans.o
 .ARM.extab.text._stats_start_measure_crit_isr
                0x0000000000000000        0x0 /tmp/cc0IPsVg.ltrans2.ltrans.o
 .ARM.extab.text._stats_start_measure_crit_thd
                0x0000000000000000        0x0 /tmp/cc0IPsVg.ltrans2.ltrans.o
 .ARM.extab.text._dbg_trace
                0x0000000000000000        0x0 /tmp/cc0IPsVg.ltrans2.ltrans.o
 .ARM.extab.text.chSchDoRescheduleAhead
                0x0000000000000000        0x0 /tmp/cc0IPsVg.ltrans2.ltrans.o
 .ARM.extab.text.chSchDoReschedule
                0x0000000000000000        0x0 /tmp/cc0IPsVg.ltrans2.ltrans.o
 .ARM.extab.text.chDbgCheckClassS
                0x0000000000000000        0x0 /tmp/cc0IPsVg.ltrans2.ltrans.o
 .ARM.extab.text.ibqReleaseEmptyBufferS
                0x0000000000000000        0x0 /tmp/cc0IPsVg.ltrans2.ltrans.o
 .ARM.extab.text.chSchGoSleepS
                0x0000000000000000        0x0 /tmp/cc0IPsVg.ltrans2.ltrans.o
 .ARM.extab.text.chThdSuspendS
                0x0000000000000000        0x0 /tmp/cc0IPsVg.ltrans2.ltrans.o
 .ARM.extab.text.chDbgCheckClassI
                0x0000000000000000        0x0 /tmp/cc0IPsVg.ltrans2.ltrans.o
 .ARM.extab.text.chThdCreateI
                0x0000000000000000        0x0 /tmp/cc0IPsVg.ltrans2.ltrans.o
 .ARM.extab.text.chSchRescheduleS
                0x0000000000000000        0x0 /tmp/cc0IPsVg.ltrans2.ltrans.o
 .ARM.extab.text.chSchGoSleepTimeoutS
                0x0000000000000000        0x0 /tmp/cc0IPsVg.ltrans2.ltrans.o
 .ARM.extab.text.chThdEnqueueTimeoutS
                0x0000000000000000        0x0 /tmp/cc0IPsVg.ltrans2.ltrans.o
 .ARM.extab.text.ibqGetFullBufferTimeoutS
                0x0000000000000000        0x0 /tmp/cc0IPsVg.ltrans2.ltrans.o
 .ARM.extab.text.chSchReadyI
                0x0000000000000000        0x0 /tmp/cc0IPsVg.ltrans2.ltrans.o
 .ARM.extab.text.chEvtBroadcastFlagsI
                0x0000000000000000        0x0 /tmp/cc0IPsVg.ltrans2.ltrans.o
 .ARM.extab.text.chThdDequeueAllI
                0x0000000000000000        0x0 /tmp/cc0IPsVg.ltrans2.ltrans.o
 .ARM.extab.text.chThdResumeI
                0x0000000000000000        0x0 /tmp/cc0IPsVg.ltrans2.ltrans.o
 .ARM.extab.text.chThdExitS
                0x0000000000000000        0x0 /tmp/cc0IPsVg.ltrans2.ltrans.o
 .ARM.extab.text._dbg_check_leave_isr
                0x0000000000000000        0x0 /tmp/cc0IPsVg.ltrans2.ltrans.o
 .ARM.extab.text._dbg_check_enter_isr
                0x0000000000000000        0x0 /tmp/cc0IPsVg.ltrans2.ltrans.o
 .ARM.extab.text._dbg_check_unlock_from_isr
                0x0000000000000000        0x0 /tmp/cc0IPsVg.ltrans2.ltrans.o
 .ARM.extab.text._dbg_check_lock_from_isr
                0x0000000000000000        0x0 /tmp/cc0IPsVg.ltrans2.ltrans.o
 .ARM.extab.text.wakeup
                0x0000000000000000        0x0 /tmp/cc0IPsVg.ltrans2.ltrans.o
 .ARM.extab.text._dbg_check_unlock
                0x0000000000000000        0x0 /tmp/cc0IPsVg.ltrans2.ltrans.o
 .ARM.extab.text._dbg_check_lock
                0x0000000000000000        0x0 /tmp/cc0IPsVg.ltrans2.ltrans.o
 .ARM.extab.text.ibqGetTimeout
                0x0000000000000000        0x0 /tmp/cc0IPsVg.ltrans2.ltrans.o
 .ARM.extab.text.chCoreAlloc
                0x0000000000000000        0x0 /tmp/cc0IPsVg.ltrans2.ltrans.o
 .ARM.extab.text.chThdExit
                0x0000000000000000        0x0 /tmp/cc0IPsVg.ltrans2.ltrans.o
 .ARM.extab.text.chThdSleepUntil
                0x0000000000000000        0x0 /tmp/cc0IPsVg.ltrans2.ltrans.o
 .ARM.extab.text.chThdSleep
                0x0000000000000000        0x0 /tmp/cc0IPsVg.ltrans2.ltrans.o
 .ARM.extab.text.chThdCreateStatic
                0x0000000000000000        0x0 /tmp/cc0IPsVg.ltrans2.ltrans.o
 .ARM.extab.text.chSysPolledDelayX
                0x0000000000000000        0x0 /tmp/cc0IPsVg.ltrans2.ltrans.o
 .ARM.extab.text._unhandled_exception
                0x0000000000000000        0x0 /tmp/cc0IPsVg.ltrans2.ltrans.o
 .ARM.extab.text.__init_ram_areas
                0x0000000000000000        0x0 /tmp/cc0IPsVg.ltrans2.ltrans.o
 .ARM.extab.text.__default_exit
                0x0000000000000000        0x0 /tmp/cc0IPsVg.ltrans2.ltrans.o
 .ARM.extab.text.__late_init
                0x0000000000000000        0x0 /tmp/cc0IPsVg.ltrans2.ltrans.o
 .ARM.extab.text.__core_init
                0x0000000000000000        0x0 /tmp/cc0IPsVg.ltrans2.ltrans.o
 .bss.MotorOn   0x0000000000000000        0x1 /tmp/cc0IPsVg.ltrans2.ltrans.o
 .text          0x0000000000000000        0x0 /tmp/cc0IPsVg.ltrans3.ltrans.o
 .data          0x0000000000000000        0x0 /tmp/cc0IPsVg.ltrans3.ltrans.o
 .bss           0x0000000000000000        0x0 /tmp/cc0IPsVg.ltrans3.ltrans.o
 .ARM.extab.text.sduInterruptTransmitted
                0x0000000000000000        0x0 /tmp/cc0IPsVg.ltrans3.ltrans.o
 .ARM.extab.text.usbStartTransmitI
                0x0000000000000000        0x0 /tmp/cc0IPsVg.ltrans3.ltrans.o
 .ARM.extab.text.usbStartReceiveI
                0x0000000000000000        0x0 /tmp/cc0IPsVg.ltrans3.ltrans.o
 .ARM.extab.text._usb_ep0setup
                0x0000000000000000        0x0 /tmp/cc0IPsVg.ltrans3.ltrans.o
 .ARM.extab.text.usbInitEndpointI
                0x0000000000000000        0x0 /tmp/cc0IPsVg.ltrans3.ltrans.o
 .ARM.extab.text.spiReleaseBus
                0x0000000000000000        0x0 /tmp/cc0IPsVg.ltrans3.ltrans.o
 .ARM.extab.text.spiAcquireBus
                0x0000000000000000        0x0 /tmp/cc0IPsVg.ltrans3.ltrans.o
 .ARM.extab.text.spiReceive
                0x0000000000000000        0x0 /tmp/cc0IPsVg.ltrans3.ltrans.o
 .ARM.extab.text.spiSend
                0x0000000000000000        0x0 /tmp/cc0IPsVg.ltrans3.ltrans.o
 .ARM.extab.text.spiUnselect
                0x0000000000000000        0x0 /tmp/cc0IPsVg.ltrans3.ltrans.o
 .ARM.extab.text.spiSelect
                0x0000000000000000        0x0 /tmp/cc0IPsVg.ltrans3.ltrans.o
 .text          0x0000000000000000        0x0 /tmp/cc0IPsVg.ltrans4.ltrans.o
 .data          0x0000000000000000        0x0 /tmp/cc0IPsVg.ltrans4.ltrans.o
 .bss           0x0000000000000000        0x0 /tmp/cc0IPsVg.ltrans4.ltrans.o
 .ARM.extab.text._mmcsd_get_slice
                0x0000000000000000        0x0 /tmp/cc0IPsVg.ltrans4.ltrans.o
 .ARM.extab.text.unlikely._mmcsd_get_capacity
                0x0000000000000000        0x0 /tmp/cc0IPsVg.ltrans4.ltrans.o
 .ARM.extab.text.sdcConnect
                0x0000000000000000        0x0 /tmp/cc0IPsVg.ltrans4.ltrans.o
 .ARM.extab.text.obqPostFullBufferS
                0x0000000000000000        0x0 /tmp/cc0IPsVg.ltrans4.ltrans.o
 .ARM.extab.text.obqGetEmptyBufferTimeoutS
                0x0000000000000000        0x0 /tmp/cc0IPsVg.ltrans4.ltrans.o
 .ARM.extab.text._sdc_wait_for_transfer_state
                0x0000000000000000        0x0 /tmp/cc0IPsVg.ltrans4.ltrans.o
 .ARM.extab.text.obqGetFullBufferI
                0x0000000000000000        0x0 /tmp/cc0IPsVg.ltrans4.ltrans.o
 .ARM.extab.text.obqWriteTimeout
                0x0000000000000000        0x0 /tmp/cc0IPsVg.ltrans4.ltrans.o
 .ARM.extab.text.obqPutTimeout
                0x0000000000000000        0x0 /tmp/cc0IPsVg.ltrans4.ltrans.o
 .ARM.extab.text.ibqReadTimeout
                0x0000000000000000        0x0 /tmp/cc0IPsVg.ltrans4.ltrans.o
 .text          0x0000000000000000        0x0 /tmp/cc0IPsVg.ltrans5.ltrans.o
 .data          0x0000000000000000        0x0 /tmp/cc0IPsVg.ltrans5.ltrans.o
 .bss           0x0000000000000000        0x0 /tmp/cc0IPsVg.ltrans5.ltrans.o
 .ARM.extab.text.matlab_thread
                0x0000000000000000        0x0 /tmp/cc0IPsVg.ltrans5.ltrans.o
 .ARM.extab.text.flashWrite.part.5.lto_priv.124
                0x0000000000000000        0x0 /tmp/cc0IPsVg.ltrans5.ltrans.o
 .ARM.extab.text.flashUnlock.part.1.lto_priv.125
                0x0000000000000000        0x0 /tmp/cc0IPsVg.ltrans5.ltrans.o
 .ARM.extab.text.flashRead
                0x0000000000000000        0x0 /tmp/cc0IPsVg.ltrans5.ltrans.o
 .ARM.extab.text.chprintf
                0x0000000000000000        0x0 /tmp/cc0IPsVg.ltrans5.ltrans.o
 .ARM.extab.text.cmd_test
                0x0000000000000000        0x0 /tmp/cc0IPsVg.ltrans5.ltrans.o
 .ARM.extab.text.cmd_calibrate
                0x0000000000000000        0x0 /tmp/cc0IPsVg.ltrans5.ltrans.o
 .ARM.extab.text.cmd_data
                0x0000000000000000        0x0 /tmp/cc0IPsVg.ltrans5.ltrans.o
 .text          0x0000000000000000        0x0 /tmp/cc0IPsVg.ltrans6.ltrans.o
 .data          0x0000000000000000        0x0 /tmp/cc0IPsVg.ltrans6.ltrans.o
 .bss           0x0000000000000000        0x0 /tmp/cc0IPsVg.ltrans6.ltrans.o
 .ARM.extab.text.sdc_lld_is_write_protected
                0x0000000000000000        0x0 /tmp/cc0IPsVg.ltrans6.ltrans.o
 .ARM.extab.text.sdc_lld_is_card_inserted
                0x0000000000000000        0x0 /tmp/cc0IPsVg.ltrans6.ltrans.o
 .ARM.extab.text.pwm_lld_serve_interrupt
                0x0000000000000000        0x0 /tmp/cc0IPsVg.ltrans6.ltrans.o
 .ARM.extab.text.spi_lld_serve_tx_interrupt.lto_priv.118
                0x0000000000000000        0x0 /tmp/cc0IPsVg.ltrans6.ltrans.o
 .ARM.extab.text.cmd_info
                0x0000000000000000        0x0 /tmp/cc0IPsVg.ltrans6.ltrans.o
 .ARM.extab.text.VectorF8
                0x0000000000000000        0x0 /tmp/cc0IPsVg.ltrans6.ltrans.o
 .ARM.extab.text.VectorF0
                0x0000000000000000        0x0 /tmp/cc0IPsVg.ltrans6.ltrans.o
 .ARM.extab.text.VectorB8
                0x0000000000000000        0x0 /tmp/cc0IPsVg.ltrans6.ltrans.o
 .ARM.extab.text.VectorB4
                0x0000000000000000        0x0 /tmp/cc0IPsVg.ltrans6.ltrans.o
 .ARM.extab.text.VectorAC
                0x0000000000000000        0x0 /tmp/cc0IPsVg.ltrans6.ltrans.o
 .ARM.extab.text.VectorA4
                0x0000000000000000        0x0 /tmp/cc0IPsVg.ltrans6.ltrans.o
 .ARM.extab.text.serve_usart_irq
                0x0000000000000000        0x0 /tmp/cc0IPsVg.ltrans6.ltrans.o
 .ARM.extab.text.Vector110
                0x0000000000000000        0x0 /tmp/cc0IPsVg.ltrans6.ltrans.o
 .ARM.extab.text.VectorD4
                0x0000000000000000        0x0 /tmp/cc0IPsVg.ltrans6.ltrans.o
 .ARM.extab.text.uart_lld_serve_tx_end_irq.lto_priv.151
                0x0000000000000000        0x0 /tmp/cc0IPsVg.ltrans6.ltrans.o
 .ARM.extab.text.uart_lld_serve_rx_end_irq.lto_priv.150
                0x0000000000000000        0x0 /tmp/cc0IPsVg.ltrans6.ltrans.o
 .ARM.extab.text.spi_lld_serve_rx_interrupt.lto_priv.117
                0x0000000000000000        0x0 /tmp/cc0IPsVg.ltrans6.ltrans.o
 .ARM.extab.text.Vector104
                0x0000000000000000        0x0 /tmp/cc0IPsVg.ltrans6.ltrans.o
 .ARM.extab.text.long_to_string_with_divisor.lto_priv.158
                0x0000000000000000        0x0 /tmp/cc0IPsVg.ltrans6.ltrans.o
 .text._isatty_r
                0x0000000000000000        0x4 /tmp/cc0IPsVg.ltrans6.ltrans.o
 .ARM.extab.text._isatty_r
                0x0000000000000000        0x0 /tmp/cc0IPsVg.ltrans6.ltrans.o
 .ARM.exidx.text._isatty_r
                0x0000000000000000        0x8 /tmp/cc0IPsVg.ltrans6.ltrans.o
 .text._fstat_r
                0x0000000000000000       0x18 /tmp/cc0IPsVg.ltrans6.ltrans.o
 .ARM.extab.text._fstat_r
                0x0000000000000000        0x0 /tmp/cc0IPsVg.ltrans6.ltrans.o
 .ARM.exidx.text._fstat_r
                0x0000000000000000        0x8 /tmp/cc0IPsVg.ltrans6.ltrans.o
 .text._sbrk_r  0x0000000000000000       0x30 /tmp/cc0IPsVg.ltrans6.ltrans.o
 .ARM.extab.text._sbrk_r
                0x0000000000000000        0x0 /tmp/cc0IPsVg.ltrans6.ltrans.o
 .ARM.exidx.text._sbrk_r
                0x0000000000000000        0x8 /tmp/cc0IPsVg.ltrans6.ltrans.o
 .text._close_r
                0x0000000000000000        0x4 /tmp/cc0IPsVg.ltrans6.ltrans.o
 .ARM.extab.text._close_r
                0x0000000000000000        0x0 /tmp/cc0IPsVg.ltrans6.ltrans.o
 .ARM.exidx.text._close_r
                0x0000000000000000        0x8 /tmp/cc0IPsVg.ltrans6.ltrans.o
 .text._write_r
                0x0000000000000000        0x4 /tmp/cc0IPsVg.ltrans6.ltrans.o
 .ARM.extab.text._write_r
                0x0000000000000000        0x0 /tmp/cc0IPsVg.ltrans6.ltrans.o
 .ARM.exidx.text._write_r
                0x0000000000000000        0x8 /tmp/cc0IPsVg.ltrans6.ltrans.o
 .text._lseek_r
                0x0000000000000000        0x4 /tmp/cc0IPsVg.ltrans6.ltrans.o
 .ARM.extab.text._lseek_r
                0x0000000000000000        0x0 /tmp/cc0IPsVg.ltrans6.ltrans.o
 .ARM.exidx.text._lseek_r
                0x0000000000000000        0x8 /tmp/cc0IPsVg.ltrans6.ltrans.o
 .text._read_r  0x0000000000000000        0xc /tmp/cc0IPsVg.ltrans6.ltrans.o
 .ARM.extab.text._read_r
                0x0000000000000000        0x0 /tmp/cc0IPsVg.ltrans6.ltrans.o
 .ARM.exidx.text._read_r
                0x0000000000000000        0x8 /tmp/cc0IPsVg.ltrans6.ltrans.o
 .ARM.extab.text.__early_init
                0x0000000000000000        0x0 /tmp/cc0IPsVg.ltrans6.ltrans.o
 .ARM.extab.text.sdc_lld_collect_errors.isra.0.lto_priv.165
                0x0000000000000000        0x0 /tmp/cc0IPsVg.ltrans6.ltrans.o
 .ARM.extab.text.sdc_lld_send_cmd_long_crc
                0x0000000000000000        0x0 /tmp/cc0IPsVg.ltrans6.ltrans.o
 .ARM.extab.text.sdc_lld_send_cmd_short_crc
                0x0000000000000000        0x0 /tmp/cc0IPsVg.ltrans6.ltrans.o
 .ARM.extab.text.sdc_lld_write_aligned.part.5.lto_priv.173
                0x0000000000000000        0x0 /tmp/cc0IPsVg.ltrans6.ltrans.o
 .ARM.extab.text.sdc_lld_read_aligned.part.4.lto_priv.174
                0x0000000000000000        0x0 /tmp/cc0IPsVg.ltrans6.ltrans.o
 .ARM.extab.text.sdc_lld_read_special
                0x0000000000000000        0x0 /tmp/cc0IPsVg.ltrans6.ltrans.o
 .ARM.extab.text.shell_thread.lto_priv.96
                0x0000000000000000        0x0 /tmp/cc0IPsVg.ltrans6.ltrans.o
 .ARM.extab.text.cmd_systime
                0x0000000000000000        0x0 /tmp/cc0IPsVg.ltrans6.ltrans.o
 .rodata.__func__.7663
                0x0000000000000000        0x8 /tmp/cc0IPsVg.ltrans6.ltrans.o
 .text          0x0000000000000000        0x0 /tmp/cc0IPsVg.ltrans7.ltrans.o
 .data          0x0000000000000000        0x0 /tmp/cc0IPsVg.ltrans7.ltrans.o
 .bss           0x0000000000000000        0x0 /tmp/cc0IPsVg.ltrans7.ltrans.o
 .ARM.extab.text.Vector4C
                0x0000000000000000        0x0 /tmp/cc0IPsVg.ltrans7.ltrans.o
 .ARM.extab.text.Vector48
                0x0000000000000000        0x0 /tmp/cc0IPsVg.ltrans7.ltrans.o
 .ARM.extab.text.Vector170
                0x0000000000000000        0x0 /tmp/cc0IPsVg.ltrans7.ltrans.o
 .ARM.extab.text.Vector138
                0x0000000000000000        0x0 /tmp/cc0IPsVg.ltrans7.ltrans.o
 .ARM.extab.text.VectorE8
                0x0000000000000000        0x0 /tmp/cc0IPsVg.ltrans7.ltrans.o
 .ARM.extab.text.VectorE4
                0x0000000000000000        0x0 /tmp/cc0IPsVg.ltrans7.ltrans.o
 .ARM.extab.text.Vector44
                0x0000000000000000        0x0 /tmp/cc0IPsVg.ltrans7.ltrans.o
 .ARM.extab.text.VectorE0
                0x0000000000000000        0x0 /tmp/cc0IPsVg.ltrans7.ltrans.o
 .ARM.extab.text.sdc_lld_error_cleanup.lto_priv.160
                0x0000000000000000        0x0 /tmp/cc0IPsVg.ltrans7.ltrans.o
 .ARM.extab.text.usb_lld_start_in
                0x0000000000000000        0x0 /tmp/cc0IPsVg.ltrans7.ltrans.o
 .ARM.extab.text.otg_epin_handler
                0x0000000000000000        0x0 /tmp/cc0IPsVg.ltrans7.ltrans.o
 .ARM.extab.text.usb_lld_start_out
                0x0000000000000000        0x0 /tmp/cc0IPsVg.ltrans7.ltrans.o
 .ARM.extab.text.otg_epout_handler
                0x0000000000000000        0x0 /tmp/cc0IPsVg.ltrans7.ltrans.o
 .ARM.extab.text.usb_lld_serve_interrupt
                0x0000000000000000        0x0 /tmp/cc0IPsVg.ltrans7.ltrans.o
 .ARM.extab.text.Vector174
                0x0000000000000000        0x0 /tmp/cc0IPsVg.ltrans7.ltrans.o
 .ARM.extab.text.Vector14C
                0x0000000000000000        0x0 /tmp/cc0IPsVg.ltrans7.ltrans.o
 .ARM.extab.text.sdc_lld_wait_transaction_end.lto_priv.159
                0x0000000000000000        0x0 /tmp/cc0IPsVg.ltrans7.ltrans.o
 .ARM.extab.text.usb_lld_pump
                0x0000000000000000        0x0 /tmp/cc0IPsVg.ltrans7.ltrans.o
 .text          0x0000000000000000        0x0 /tmp/cc0IPsVg.ltrans8.ltrans.o
 .data          0x0000000000000000        0x0 /tmp/cc0IPsVg.ltrans8.ltrans.o
 .bss           0x0000000000000000        0x0 /tmp/cc0IPsVg.ltrans8.ltrans.o
 .ARM.extab.text.PID_VEL
                0x0000000000000000        0x0 /tmp/cc0IPsVg.ltrans8.ltrans.o
 .ARM.extab.text.turn_angle
                0x0000000000000000        0x0 /tmp/cc0IPsVg.ltrans8.ltrans.o
 .ARM.extab.text.get_descriptor.lto_priv.101
                0x0000000000000000        0x0 /tmp/cc0IPsVg.ltrans8.ltrans.o
 .ARM.extab.text.pwm_thd.lto_priv.91
                0x0000000000000000        0x0 /tmp/cc0IPsVg.ltrans8.ltrans.o
 .ARM.extab.text.sof_handler.lto_priv.102
                0x0000000000000000        0x0 /tmp/cc0IPsVg.ltrans8.ltrans.o
 .ARM.extab.text.usb_event.lto_priv.100
                0x0000000000000000        0x0 /tmp/cc0IPsVg.ltrans8.ltrans.o
 .ARM.extab.text.params_set.part.0.lto_priv.111
                0x0000000000000000        0x0 /tmp/cc0IPsVg.ltrans8.ltrans.o
 .ARM.extab.text.param_save_flash
                0x0000000000000000        0x0 /tmp/cc0IPsVg.ltrans8.ltrans.o
 .ARM.extab.text.Temperature_thread.lto_priv.114
                0x0000000000000000        0x0 /tmp/cc0IPsVg.ltrans8.ltrans.o
 .ARM.extab.text.feeder_control.lto_priv.89
                0x0000000000000000        0x0 /tmp/cc0IPsVg.ltrans8.ltrans.o
 .text          0x0000000000000000        0x0 /tmp/cc0IPsVg.ltrans9.ltrans.o
 .data          0x0000000000000000        0x0 /tmp/cc0IPsVg.ltrans9.ltrans.o
 .bss           0x0000000000000000        0x0 /tmp/cc0IPsVg.ltrans9.ltrans.o
 .ARM.extab.text.Vector9C
                0x0000000000000000        0x0 /tmp/cc0IPsVg.ltrans9.ltrans.o
 .ARM.extab.text.Vector68
                0x0000000000000000        0x0 /tmp/cc0IPsVg.ltrans9.ltrans.o
 .ARM.extab.text.Vector64
                0x0000000000000000        0x0 /tmp/cc0IPsVg.ltrans9.ltrans.o
 .ARM.extab.text.Vector60
                0x0000000000000000        0x0 /tmp/cc0IPsVg.ltrans9.ltrans.o
 .ARM.extab.text.Vector5C
                0x0000000000000000        0x0 /tmp/cc0IPsVg.ltrans9.ltrans.o
 .ARM.extab.text.Vector58
                0x0000000000000000        0x0 /tmp/cc0IPsVg.ltrans9.ltrans.o
 .ARM.extab.text.Vector158
                0x0000000000000000        0x0 /tmp/cc0IPsVg.ltrans9.ltrans.o
 .ARM.extab.text.Vector154
                0x0000000000000000        0x0 /tmp/cc0IPsVg.ltrans9.ltrans.o
 .ARM.extab.text.Vector150
                0x0000000000000000        0x0 /tmp/cc0IPsVg.ltrans9.ltrans.o
 .ARM.extab.text.Vector130
                0x0000000000000000        0x0 /tmp/cc0IPsVg.ltrans9.ltrans.o
 .ARM.extab.text.Vector12C
                0x0000000000000000        0x0 /tmp/cc0IPsVg.ltrans9.ltrans.o
 .ARM.extab.text.Vector128
                0x0000000000000000        0x0 /tmp/cc0IPsVg.ltrans9.ltrans.o
 .ARM.extab.text.Vector124
                0x0000000000000000        0x0 /tmp/cc0IPsVg.ltrans9.ltrans.o
 .ARM.extab.text.Vector120
                0x0000000000000000        0x0 /tmp/cc0IPsVg.ltrans9.ltrans.o
 .ARM.extab.text.VectorFC
                0x0000000000000000        0x0 /tmp/cc0IPsVg.ltrans9.ltrans.o
 .ARM.extab.text.Vector84
                0x0000000000000000        0x0 /tmp/cc0IPsVg.ltrans9.ltrans.o
 .ARM.extab.text.Vector80
                0x0000000000000000        0x0 /tmp/cc0IPsVg.ltrans9.ltrans.o
 .ARM.extab.text.Vector7C
                0x0000000000000000        0x0 /tmp/cc0IPsVg.ltrans9.ltrans.o
 .ARM.extab.text.Vector78
                0x0000000000000000        0x0 /tmp/cc0IPsVg.ltrans9.ltrans.o
 .ARM.extab.text.Vector74
                0x0000000000000000        0x0 /tmp/cc0IPsVg.ltrans9.ltrans.o
 .ARM.extab.text.Vector70
                0x0000000000000000        0x0 /tmp/cc0IPsVg.ltrans9.ltrans.o
 .ARM.extab.text.Vector6C
                0x0000000000000000        0x0 /tmp/cc0IPsVg.ltrans9.ltrans.o
 .ARM.extab.text.can_lld_sce_handler
                0x0000000000000000        0x0 /tmp/cc0IPsVg.ltrans9.ltrans.o
 .ARM.extab.text.Vector148
                0x0000000000000000        0x0 /tmp/cc0IPsVg.ltrans9.ltrans.o
 .ARM.extab.text.Vector98
                0x0000000000000000        0x0 /tmp/cc0IPsVg.ltrans9.ltrans.o
 .ARM.extab.text.can_lld_rx1_handler
                0x0000000000000000        0x0 /tmp/cc0IPsVg.ltrans9.ltrans.o
 .ARM.extab.text.Vector144
                0x0000000000000000        0x0 /tmp/cc0IPsVg.ltrans9.ltrans.o
 .ARM.extab.text.Vector94
                0x0000000000000000        0x0 /tmp/cc0IPsVg.ltrans9.ltrans.o
 .ARM.extab.text.can_lld_rx0_handler
                0x0000000000000000        0x0 /tmp/cc0IPsVg.ltrans9.ltrans.o
 .ARM.extab.text.Vector140
                0x0000000000000000        0x0 /tmp/cc0IPsVg.ltrans9.ltrans.o
 .ARM.extab.text.Vector90
                0x0000000000000000        0x0 /tmp/cc0IPsVg.ltrans9.ltrans.o
 .ARM.extab.text.can_lld_tx_handler
                0x0000000000000000        0x0 /tmp/cc0IPsVg.ltrans9.ltrans.o
 .ARM.extab.text.Vector13C
                0x0000000000000000        0x0 /tmp/cc0IPsVg.ltrans9.ltrans.o
 .ARM.extab.text.Vector8C
                0x0000000000000000        0x0 /tmp/cc0IPsVg.ltrans9.ltrans.o
 .ARM.extab.text.VectorB0
                0x0000000000000000        0x0 /tmp/cc0IPsVg.ltrans9.ltrans.o
 .ARM.extab.text._usb_ep0out
                0x0000000000000000        0x0 /tmp/cc0IPsVg.ltrans9.ltrans.o
 .ARM.extab.text._usb_ep0in
                0x0000000000000000        0x0 /tmp/cc0IPsVg.ltrans9.ltrans.o
 .ARM.extab.text.dmaStreamAllocate
                0x0000000000000000        0x0 /tmp/cc0IPsVg.ltrans9.ltrans.o
 .text          0x0000000000000000        0x0 /tmp/cc0IPsVg.ltrans10.ltrans.o
 .data          0x0000000000000000        0x0 /tmp/cc0IPsVg.ltrans10.ltrans.o
 .bss           0x0000000000000000        0x0 /tmp/cc0IPsVg.ltrans10.ltrans.o
 .ARM.extab.text.rxend.lto_priv.152
                0x0000000000000000        0x0 /tmp/cc0IPsVg.ltrans10.ltrans.o
 .ARM.extab.text.cmd_temp
                0x0000000000000000        0x0 /tmp/cc0IPsVg.ltrans10.ltrans.o
 .ARM.extab.text.RC_reset.lto_priv.113
                0x0000000000000000        0x0 /tmp/cc0IPsVg.ltrans10.ltrans.o
 .ARM.extab.text.lpfilter_apply
                0x0000000000000000        0x0 /tmp/cc0IPsVg.ltrans10.ltrans.o
 .ARM.extab.text.imuGetDataRaw
                0x0000000000000000        0x0 /tmp/cc0IPsVg.ltrans10.ltrans.o
 .ARM.extab.text.imuGetData
                0x0000000000000000        0x0 /tmp/cc0IPsVg.ltrans10.ltrans.o
 .ARM.extab.text.can_rx.lto_priv.95
                0x0000000000000000        0x0 /tmp/cc0IPsVg.ltrans10.ltrans.o
 .text          0x0000000000000000        0x0 /tmp/cc0IPsVg.ltrans11.ltrans.o
 .data          0x0000000000000000        0x0 /tmp/cc0IPsVg.ltrans11.ltrans.o
 .bss           0x0000000000000000        0x0 /tmp/cc0IPsVg.ltrans11.ltrans.o
 .ARM.extab.text.gimbal_encoderUpdate.lto_priv.112
                0x0000000000000000        0x0 /tmp/cc0IPsVg.ltrans11.ltrans.o
 .ARM.extab.text.gimbal_kill
                0x0000000000000000        0x0 /tmp/cc0IPsVg.ltrans11.ltrans.o
 .ARM.extab.text.uart_dbus_thread.lto_priv.94
                0x0000000000000000        0x0 /tmp/cc0IPsVg.ltrans11.ltrans.o
 .text          0x0000000000000000        0x0 /tmp/cc0IPsVg.ltrans12.ltrans.o
 .data          0x0000000000000000        0x0 /tmp/cc0IPsVg.ltrans12.ltrans.o
 .bss           0x0000000000000000        0x0 /tmp/cc0IPsVg.ltrans12.ltrans.o
 .ARM.extab.text.cmd_param_scale
                0x0000000000000000        0x0 /tmp/cc0IPsVg.ltrans12.ltrans.o
 .ARM.extab.text.cmd_param_update
                0x0000000000000000        0x0 /tmp/cc0IPsVg.ltrans12.ltrans.o
 .ARM.extab.text.sendLine
                0x0000000000000000        0x0 /tmp/cc0IPsVg.ltrans12.ltrans.o
 .ARM.extab.text.cmd_param_tx
                0x0000000000000000        0x0 /tmp/cc0IPsVg.ltrans12.ltrans.o
 .ARM.extab.text.cmd_param_rx
                0x0000000000000000        0x0 /tmp/cc0IPsVg.ltrans12.ltrans.o
 .ARM.extab.text.gimbal_init_thread.lto_priv.92
                0x0000000000000000        0x0 /tmp/cc0IPsVg.ltrans12.ltrans.o
 .ARM.extab.text.gimbal_thread.lto_priv.93
                0x0000000000000000        0x0 /tmp/cc0IPsVg.ltrans12.ltrans.o
 .text          0x0000000000000000        0x0 /tmp/cc0IPsVg.ltrans13.ltrans.o
 .data          0x0000000000000000        0x0 /tmp/cc0IPsVg.ltrans13.ltrans.o
 .bss           0x0000000000000000        0x0 /tmp/cc0IPsVg.ltrans13.ltrans.o
 .ARM.extab.text.sduRequestsHook
                0x0000000000000000        0x0 /tmp/cc0IPsVg.ltrans13.ltrans.o
 .ARM.extab.text.sdcGetInfo
                0x0000000000000000        0x0 /tmp/cc0IPsVg.ltrans13.ltrans.o
 .ARM.extab.text.sdcSync
                0x0000000000000000        0x0 /tmp/cc0IPsVg.ltrans13.ltrans.o
 .ARM.extab.text.sduDataTransmitted
                0x0000000000000000        0x0 /tmp/cc0IPsVg.ltrans13.ltrans.o
 .ARM.extab.text.obnotify.lto_priv.98
                0x0000000000000000        0x0 /tmp/cc0IPsVg.ltrans13.ltrans.o
 .ARM.extab.text.readt.lto_priv.110
                0x0000000000000000        0x0 /tmp/cc0IPsVg.ltrans13.ltrans.o
 .ARM.extab.text.read.lto_priv.104
                0x0000000000000000        0x0 /tmp/cc0IPsVg.ltrans13.ltrans.o
 .ARM.extab.text.writet.lto_priv.109
                0x0000000000000000        0x0 /tmp/cc0IPsVg.ltrans13.ltrans.o
 .ARM.extab.text.write.lto_priv.103
                0x0000000000000000        0x0 /tmp/cc0IPsVg.ltrans13.ltrans.o
 .ARM.extab.text.gett.lto_priv.108
                0x0000000000000000        0x0 /tmp/cc0IPsVg.ltrans13.ltrans.o
 .ARM.extab.text.get.lto_priv.106
                0x0000000000000000        0x0 /tmp/cc0IPsVg.ltrans13.ltrans.o
 .ARM.extab.text.putt.lto_priv.107
                0x0000000000000000        0x0 /tmp/cc0IPsVg.ltrans13.ltrans.o
 .ARM.extab.text.put.lto_priv.105
                0x0000000000000000        0x0 /tmp/cc0IPsVg.ltrans13.ltrans.o
 .ARM.extab.text.sdcWrite
                0x0000000000000000        0x0 /tmp/cc0IPsVg.ltrans13.ltrans.o
 .ARM.extab.text.sdcRead
                0x0000000000000000        0x0 /tmp/cc0IPsVg.ltrans13.ltrans.o
 .ARM.extab.text.sdu_start_receive.lto_priv.123
                0x0000000000000000        0x0 /tmp/cc0IPsVg.ltrans13.ltrans.o
 .ARM.extab.text.sduDataReceived
                0x0000000000000000        0x0 /tmp/cc0IPsVg.ltrans13.ltrans.o
 .ARM.extab.text.ibnotify.lto_priv.97
                0x0000000000000000        0x0 /tmp/cc0IPsVg.ltrans13.ltrans.o
 .ARM.extab.text.sdcDisconnect
                0x0000000000000000        0x0 /tmp/cc0IPsVg.ltrans13.ltrans.o
 .text          0x0000000000000000        0x0 /tmp/cc0IPsVg.ltrans14.ltrans.o
 .data          0x0000000000000000        0x0 /tmp/cc0IPsVg.ltrans14.ltrans.o
 .bss           0x0000000000000000        0x0 /tmp/cc0IPsVg.ltrans14.ltrans.o
 .ARM.extab.text.chSchWakeupS.constprop.76
                0x0000000000000000        0x0 /tmp/cc0IPsVg.ltrans14.ltrans.o
 .ARM.extab.text.chThdResumeS.constprop.73
                0x0000000000000000        0x0 /tmp/cc0IPsVg.ltrans14.ltrans.o
 .ARM.extab.text.can_lld_set_filters.constprop.66
                0x0000000000000000        0x0 /tmp/cc0IPsVg.ltrans14.ltrans.o
 .ARM.extab.text._strtok.constprop.21
                0x0000000000000000        0x0 /tmp/cc0IPsVg.ltrans14.ltrans.o
 .ARM.extab.text.lpfilter_init.constprop.11
                0x0000000000000000        0x0 /tmp/cc0IPsVg.ltrans14.ltrans.o
 .ARM.extab.text.pwmEnableChannel.constprop.46
                0x0000000000000000        0x0 /tmp/cc0IPsVg.ltrans14.ltrans.o
 .ARM.extab.text.can_motorSetCurrent.constprop.4
                0x0000000000000000        0x0 /tmp/cc0IPsVg.ltrans14.ltrans.o
 .text          0x0000000000000000        0x0 build/obj/vectors.o (symbol from plugin)
 .text          0x0000000000000000        0x0 build/obj/chsys.o (symbol from plugin)
 .text          0x0000000000000000        0x0 build/obj/chdebug.o (symbol from plugin)
 .text          0x0000000000000000        0x0 build/obj/chvt.o (symbol from plugin)
 .text          0x0000000000000000        0x0 build/obj/chschd.o (symbol from plugin)
 .text          0x0000000000000000        0x0 build/obj/chthreads.o (symbol from plugin)
 .text          0x0000000000000000        0x0 build/obj/chtm.o (symbol from plugin)
 .text          0x0000000000000000        0x0 build/obj/chstats.o (symbol from plugin)
 .text          0x0000000000000000        0x0 build/obj/chdynamic.o (symbol from plugin)
 .text          0x0000000000000000        0x0 build/obj/chregistry.o (symbol from plugin)
 .text          0x0000000000000000        0x0 build/obj/chsem.o (symbol from plugin)
 .text          0x0000000000000000        0x0 build/obj/chmtx.o (symbol from plugin)
 .text          0x0000000000000000        0x0 build/obj/chcond.o (symbol from plugin)
 .text          0x0000000000000000        0x0 build/obj/chevents.o (symbol from plugin)
 .text          0x0000000000000000        0x0 build/obj/chmsg.o (symbol from plugin)
 .text          0x0000000000000000        0x0 build/obj/chmboxes.o (symbol from plugin)
 .text          0x0000000000000000        0x0 build/obj/chqueues.o (symbol from plugin)
 .text          0x0000000000000000        0x0 build/obj/chmemcore.o (symbol from plugin)
 .text          0x0000000000000000        0x0 build/obj/chheap.o (symbol from plugin)
 .text          0x0000000000000000        0x0 build/obj/chmempools.o (symbol from plugin)
 .text          0x0000000000000000        0x0 build/obj/chcore.o (symbol from plugin)
 .text          0x0000000000000000        0x0 build/obj/chcore_v7m.o (symbol from plugin)
 .text          0x0000000000000000        0x0 build/obj/osal.o (symbol from plugin)
 .text          0x0000000000000000        0x0 build/obj/hal.o (symbol from plugin)
 .text          0x0000000000000000        0x0 build/obj/st.o (symbol from plugin)
 .text          0x0000000000000000        0x0 build/obj/hal_buffers.o (symbol from plugin)
 .text          0x0000000000000000        0x0 build/obj/hal_queues.o (symbol from plugin)
 .text          0x0000000000000000        0x0 build/obj/hal_mmcsd.o (symbol from plugin)
 .text          0x0000000000000000        0x0 build/obj/can.o (symbol from plugin)
 .text          0x0000000000000000        0x0 build/obj/ext.o (symbol from plugin)
 .text          0x0000000000000000        0x0 build/obj/pal.o (symbol from plugin)
 .text          0x0000000000000000        0x0 build/obj/pwm.o (symbol from plugin)
 .text          0x0000000000000000        0x0 build/obj/sdc.o (symbol from plugin)
 .text          0x0000000000000000        0x0 build/obj/serial_usb.o (symbol from plugin)
 .text          0x0000000000000000        0x0 build/obj/spi.o (symbol from plugin)
 .text          0x0000000000000000        0x0 build/obj/uart.o (symbol from plugin)
 .text          0x0000000000000000        0x0 build/obj/usb.o (symbol from plugin)
 .text          0x0000000000000000        0x0 build/obj/wdg.o (symbol from plugin)
 .text          0x0000000000000000        0x0 build/obj/nvic.o (symbol from plugin)
 .text          0x0000000000000000        0x0 build/obj/hal_lld.o (symbol from plugin)
 .text          0x0000000000000000        0x0 build/obj/stm32_dma.o (symbol from plugin)
 .text          0x0000000000000000        0x0 build/obj/st_lld.o (symbol from plugin)
 .text          0x0000000000000000        0x0 build/obj/can_lld.o (symbol from plugin)
 .text          0x0000000000000000        0x0 build/obj/ext_lld.o (symbol from plugin)
 .text          0x0000000000000000        0x0 build/obj/ext_lld_isr.o (symbol from plugin)
 .text          0x0000000000000000        0x0 build/obj/pal_lld.o (symbol from plugin)
 .text          0x0000000000000000        0x0 build/obj/usb_lld.o (symbol from plugin)
 .text          0x0000000000000000        0x0 build/obj/sdc_lld.o (symbol from plugin)
 .text          0x0000000000000000        0x0 build/obj/spi_lld.o (symbol from plugin)
 .text          0x0000000000000000        0x0 build/obj/pwm_lld.o (symbol from plugin)
 .text          0x0000000000000000        0x0 build/obj/uart_lld.o (symbol from plugin)
 .text          0x0000000000000000        0x0 build/obj/wdg_lld.o (symbol from plugin)
 .text          0x0000000000000000        0x0 build/obj/board.o (symbol from plugin)
 .text          0x0000000000000000        0x0 build/obj/fatfs_diskio.o (symbol from plugin)
 .text          0x0000000000000000        0x0 build/obj/fatfs_syscall.o (symbol from plugin)
 .text          0x0000000000000000        0x0 build/obj/ff.o (symbol from plugin)
 .text          0x0000000000000000        0x0 build/obj/unicode.o (symbol from plugin)
 .text          0x0000000000000000        0x0 build/obj/shell.o (symbol from plugin)
 .text          0x0000000000000000        0x0 build/obj/evtimer.o (symbol from plugin)
 .text          0x0000000000000000        0x0 build/obj/syscalls.o (symbol from plugin)
 .text          0x0000000000000000        0x0 build/obj/memstreams.o (symbol from plugin)
 .text          0x0000000000000000        0x0 build/obj/chprintf.o (symbol from plugin)
 .text          0x0000000000000000        0x0 build/obj/flash.o (symbol from plugin)
 .text          0x0000000000000000        0x0 build/obj/sdlog.o (symbol from plugin)
 .text          0x0000000000000000        0x0 build/obj/shellcfg.o (symbol from plugin)
 .text          0x0000000000000000        0x0 build/obj/mpu6500.o (symbol from plugin)
 .text          0x0000000000000000        0x0 build/obj/attitude.o (symbol from plugin)
 .text          0x0000000000000000        0x0 build/obj/ist8310.o (symbol from plugin)
 .text          0x0000000000000000        0x0 build/obj/math_misc.o (symbol from plugin)
 .text          0x0000000000000000        0x0 build/obj/canBusProcess.o (symbol from plugin)
 .text          0x0000000000000000        0x0 build/obj/dbus.o (symbol from plugin)
 .text          0x0000000000000000        0x0 build/obj/gimbal.o (symbol from plugin)
 .text          0x0000000000000000        0x0 build/obj/params.o (symbol from plugin)
 .text          0x0000000000000000        0x0 build/obj/usbcfg.o (symbol from plugin)
 .text          0x0000000000000000        0x0 build/obj/calibrate_sensor.o (symbol from plugin)
 .text          0x0000000000000000        0x0 build/obj/shoot_pwm.o (symbol from plugin)
 .text          0x0000000000000000        0x0 build/obj/feeder.o (symbol from plugin)
 .text          0x0000000000000000        0x0 build/obj/exti.o (symbol from plugin)
 .text          0x0000000000000000        0x0 build/obj/imu_temp.o (symbol from plugin)
 .text          0x0000000000000000        0x0 build/obj/main.o (symbol from plugin)
 .text          0x0000000000000000        0x0 build/obj/dji_receiver.o (symbol from plugin)
 .text          0x0000000000000000        0x0 /usr/lib/gcc/arm-none-eabi/4.9.3/../../../arm-none-eabi/lib/armv7e-m/fpu/libm.a(lib_a-sf_fpclassify.o)
 .data          0x0000000000000000        0x0 /usr/lib/gcc/arm-none-eabi/4.9.3/../../../arm-none-eabi/lib/armv7e-m/fpu/libm.a(lib_a-sf_fpclassify.o)
 .bss           0x0000000000000000        0x0 /usr/lib/gcc/arm-none-eabi/4.9.3/../../../arm-none-eabi/lib/armv7e-m/fpu/libm.a(lib_a-sf_fpclassify.o)
 .text          0x0000000000000000        0x0 /usr/lib/gcc/arm-none-eabi/4.9.3/../../../arm-none-eabi/lib/armv7e-m/fpu/libm.a(lib_a-sf_cos.o)
 .data          0x0000000000000000        0x0 /usr/lib/gcc/arm-none-eabi/4.9.3/../../../arm-none-eabi/lib/armv7e-m/fpu/libm.a(lib_a-sf_cos.o)
 .bss           0x0000000000000000        0x0 /usr/lib/gcc/arm-none-eabi/4.9.3/../../../arm-none-eabi/lib/armv7e-m/fpu/libm.a(lib_a-sf_cos.o)
 .text          0x0000000000000000        0x0 /usr/lib/gcc/arm-none-eabi/4.9.3/../../../arm-none-eabi/lib/armv7e-m/fpu/libm.a(lib_a-sf_sin.o)
 .data          0x0000000000000000        0x0 /usr/lib/gcc/arm-none-eabi/4.9.3/../../../arm-none-eabi/lib/armv7e-m/fpu/libm.a(lib_a-sf_sin.o)
 .bss           0x0000000000000000        0x0 /usr/lib/gcc/arm-none-eabi/4.9.3/../../../arm-none-eabi/lib/armv7e-m/fpu/libm.a(lib_a-sf_sin.o)
 .text          0x0000000000000000        0x0 /usr/lib/gcc/arm-none-eabi/4.9.3/../../../arm-none-eabi/lib/armv7e-m/fpu/libm.a(lib_a-sf_tan.o)
 .data          0x0000000000000000        0x0 /usr/lib/gcc/arm-none-eabi/4.9.3/../../../arm-none-eabi/lib/armv7e-m/fpu/libm.a(lib_a-sf_tan.o)
 .bss           0x0000000000000000        0x0 /usr/lib/gcc/arm-none-eabi/4.9.3/../../../arm-none-eabi/lib/armv7e-m/fpu/libm.a(lib_a-sf_tan.o)
 .text          0x0000000000000000        0x0 /usr/lib/gcc/arm-none-eabi/4.9.3/../../../arm-none-eabi/lib/armv7e-m/fpu/libm.a(lib_a-wf_asin.o)
 .data          0x0000000000000000        0x0 /usr/lib/gcc/arm-none-eabi/4.9.3/../../../arm-none-eabi/lib/armv7e-m/fpu/libm.a(lib_a-wf_asin.o)
 .bss           0x0000000000000000        0x0 /usr/lib/gcc/arm-none-eabi/4.9.3/../../../arm-none-eabi/lib/armv7e-m/fpu/libm.a(lib_a-wf_asin.o)
 .text          0x0000000000000000        0x0 /usr/lib/gcc/arm-none-eabi/4.9.3/../../../arm-none-eabi/lib/armv7e-m/fpu/libm.a(lib_a-wf_atan2.o)
 .data          0x0000000000000000        0x0 /usr/lib/gcc/arm-none-eabi/4.9.3/../../../arm-none-eabi/lib/armv7e-m/fpu/libm.a(lib_a-wf_atan2.o)
 .bss           0x0000000000000000        0x0 /usr/lib/gcc/arm-none-eabi/4.9.3/../../../arm-none-eabi/lib/armv7e-m/fpu/libm.a(lib_a-wf_atan2.o)
 .text          0x0000000000000000        0x0 /usr/lib/gcc/arm-none-eabi/4.9.3/../../../arm-none-eabi/lib/armv7e-m/fpu/libm.a(lib_a-wf_sqrt.o)
 .data          0x0000000000000000        0x0 /usr/lib/gcc/arm-none-eabi/4.9.3/../../../arm-none-eabi/lib/armv7e-m/fpu/libm.a(lib_a-wf_sqrt.o)
 .bss           0x0000000000000000        0x0 /usr/lib/gcc/arm-none-eabi/4.9.3/../../../arm-none-eabi/lib/armv7e-m/fpu/libm.a(lib_a-wf_sqrt.o)
 .text          0x0000000000000000        0x0 /usr/lib/gcc/arm-none-eabi/4.9.3/../../../arm-none-eabi/lib/armv7e-m/fpu/libm.a(lib_a-ef_asin.o)
 .data          0x0000000000000000        0x0 /usr/lib/gcc/arm-none-eabi/4.9.3/../../../arm-none-eabi/lib/armv7e-m/fpu/libm.a(lib_a-ef_asin.o)
 .bss           0x0000000000000000        0x0 /usr/lib/gcc/arm-none-eabi/4.9.3/../../../arm-none-eabi/lib/armv7e-m/fpu/libm.a(lib_a-ef_asin.o)
 .text          0x0000000000000000        0x0 /usr/lib/gcc/arm-none-eabi/4.9.3/../../../arm-none-eabi/lib/armv7e-m/fpu/libm.a(lib_a-ef_atan2.o)
 .data          0x0000000000000000        0x0 /usr/lib/gcc/arm-none-eabi/4.9.3/../../../arm-none-eabi/lib/armv7e-m/fpu/libm.a(lib_a-ef_atan2.o)
 .bss           0x0000000000000000        0x0 /usr/lib/gcc/arm-none-eabi/4.9.3/../../../arm-none-eabi/lib/armv7e-m/fpu/libm.a(lib_a-ef_atan2.o)
 .text          0x0000000000000000        0x0 /usr/lib/gcc/arm-none-eabi/4.9.3/../../../arm-none-eabi/lib/armv7e-m/fpu/libm.a(lib_a-ef_rem_pio2.o)
 .data          0x0000000000000000        0x0 /usr/lib/gcc/arm-none-eabi/4.9.3/../../../arm-none-eabi/lib/armv7e-m/fpu/libm.a(lib_a-ef_rem_pio2.o)
 .bss           0x0000000000000000        0x0 /usr/lib/gcc/arm-none-eabi/4.9.3/../../../arm-none-eabi/lib/armv7e-m/fpu/libm.a(lib_a-ef_rem_pio2.o)
 .text          0x0000000000000000        0x0 /usr/lib/gcc/arm-none-eabi/4.9.3/../../../arm-none-eabi/lib/armv7e-m/fpu/libm.a(lib_a-ef_sqrt.o)
 .data          0x0000000000000000        0x0 /usr/lib/gcc/arm-none-eabi/4.9.3/../../../arm-none-eabi/lib/armv7e-m/fpu/libm.a(lib_a-ef_sqrt.o)
 .bss           0x0000000000000000        0x0 /usr/lib/gcc/arm-none-eabi/4.9.3/../../../arm-none-eabi/lib/armv7e-m/fpu/libm.a(lib_a-ef_sqrt.o)
 .text          0x0000000000000000        0x0 /usr/lib/gcc/arm-none-eabi/4.9.3/../../../arm-none-eabi/lib/armv7e-m/fpu/libm.a(lib_a-kf_cos.o)
 .data          0x0000000000000000        0x0 /usr/lib/gcc/arm-none-eabi/4.9.3/../../../arm-none-eabi/lib/armv7e-m/fpu/libm.a(lib_a-kf_cos.o)
 .bss           0x0000000000000000        0x0 /usr/lib/gcc/arm-none-eabi/4.9.3/../../../arm-none-eabi/lib/armv7e-m/fpu/libm.a(lib_a-kf_cos.o)
 .text          0x0000000000000000        0x0 /usr/lib/gcc/arm-none-eabi/4.9.3/../../../arm-none-eabi/lib/armv7e-m/fpu/libm.a(lib_a-kf_rem_pio2.o)
 .data          0x0000000000000000        0x0 /usr/lib/gcc/arm-none-eabi/4.9.3/../../../arm-none-eabi/lib/armv7e-m/fpu/libm.a(lib_a-kf_rem_pio2.o)
 .bss           0x0000000000000000        0x0 /usr/lib/gcc/arm-none-eabi/4.9.3/../../../arm-none-eabi/lib/armv7e-m/fpu/libm.a(lib_a-kf_rem_pio2.o)
 .text          0x0000000000000000        0x0 /usr/lib/gcc/arm-none-eabi/4.9.3/../../../arm-none-eabi/lib/armv7e-m/fpu/libm.a(lib_a-kf_sin.o)
 .data          0x0000000000000000        0x0 /usr/lib/gcc/arm-none-eabi/4.9.3/../../../arm-none-eabi/lib/armv7e-m/fpu/libm.a(lib_a-kf_sin.o)
 .bss           0x0000000000000000        0x0 /usr/lib/gcc/arm-none-eabi/4.9.3/../../../arm-none-eabi/lib/armv7e-m/fpu/libm.a(lib_a-kf_sin.o)
 .text          0x0000000000000000        0x0 /usr/lib/gcc/arm-none-eabi/4.9.3/../../../arm-none-eabi/lib/armv7e-m/fpu/libm.a(lib_a-kf_tan.o)
 .data          0x0000000000000000        0x0 /usr/lib/gcc/arm-none-eabi/4.9.3/../../../arm-none-eabi/lib/armv7e-m/fpu/libm.a(lib_a-kf_tan.o)
 .bss           0x0000000000000000        0x0 /usr/lib/gcc/arm-none-eabi/4.9.3/../../../arm-none-eabi/lib/armv7e-m/fpu/libm.a(lib_a-kf_tan.o)
 .text          0x0000000000000000        0x0 /usr/lib/gcc/arm-none-eabi/4.9.3/../../../arm-none-eabi/lib/armv7e-m/fpu/libm.a(lib_a-s_lib_ver.o)
 .data          0x0000000000000000        0x0 /usr/lib/gcc/arm-none-eabi/4.9.3/../../../arm-none-eabi/lib/armv7e-m/fpu/libm.a(lib_a-s_lib_ver.o)
 .bss           0x0000000000000000        0x0 /usr/lib/gcc/arm-none-eabi/4.9.3/../../../arm-none-eabi/lib/armv7e-m/fpu/libm.a(lib_a-s_lib_ver.o)
 .text          0x0000000000000000        0x0 /usr/lib/gcc/arm-none-eabi/4.9.3/../../../arm-none-eabi/lib/armv7e-m/fpu/libm.a(lib_a-s_matherr.o)
 .data          0x0000000000000000        0x0 /usr/lib/gcc/arm-none-eabi/4.9.3/../../../arm-none-eabi/lib/armv7e-m/fpu/libm.a(lib_a-s_matherr.o)
 .bss           0x0000000000000000        0x0 /usr/lib/gcc/arm-none-eabi/4.9.3/../../../arm-none-eabi/lib/armv7e-m/fpu/libm.a(lib_a-s_matherr.o)
 .text          0x0000000000000000        0x0 /usr/lib/gcc/arm-none-eabi/4.9.3/../../../arm-none-eabi/lib/armv7e-m/fpu/libm.a(lib_a-s_nan.o)
 .data          0x0000000000000000        0x0 /usr/lib/gcc/arm-none-eabi/4.9.3/../../../arm-none-eabi/lib/armv7e-m/fpu/libm.a(lib_a-s_nan.o)
 .bss           0x0000000000000000        0x0 /usr/lib/gcc/arm-none-eabi/4.9.3/../../../arm-none-eabi/lib/armv7e-m/fpu/libm.a(lib_a-s_nan.o)
 .text          0x0000000000000000        0x0 /usr/lib/gcc/arm-none-eabi/4.9.3/../../../arm-none-eabi/lib/armv7e-m/fpu/libm.a(lib_a-sf_atan.o)
 .data          0x0000000000000000        0x0 /usr/lib/gcc/arm-none-eabi/4.9.3/../../../arm-none-eabi/lib/armv7e-m/fpu/libm.a(lib_a-sf_atan.o)
 .bss           0x0000000000000000        0x0 /usr/lib/gcc/arm-none-eabi/4.9.3/../../../arm-none-eabi/lib/armv7e-m/fpu/libm.a(lib_a-sf_atan.o)
 .text          0x0000000000000000        0x0 /usr/lib/gcc/arm-none-eabi/4.9.3/../../../arm-none-eabi/lib/armv7e-m/fpu/libm.a(lib_a-sf_fabs.o)
 .data          0x0000000000000000        0x0 /usr/lib/gcc/arm-none-eabi/4.9.3/../../../arm-none-eabi/lib/armv7e-m/fpu/libm.a(lib_a-sf_fabs.o)
 .bss           0x0000000000000000        0x0 /usr/lib/gcc/arm-none-eabi/4.9.3/../../../arm-none-eabi/lib/armv7e-m/fpu/libm.a(lib_a-sf_fabs.o)
 .text          0x0000000000000000        0x0 /usr/lib/gcc/arm-none-eabi/4.9.3/../../../arm-none-eabi/lib/armv7e-m/fpu/libm.a(lib_a-sf_floor.o)
 .data          0x0000000000000000        0x0 /usr/lib/gcc/arm-none-eabi/4.9.3/../../../arm-none-eabi/lib/armv7e-m/fpu/libm.a(lib_a-sf_floor.o)
 .bss           0x0000000000000000        0x0 /usr/lib/gcc/arm-none-eabi/4.9.3/../../../arm-none-eabi/lib/armv7e-m/fpu/libm.a(lib_a-sf_floor.o)
 .text          0x0000000000000000        0x0 /usr/lib/gcc/arm-none-eabi/4.9.3/../../../arm-none-eabi/lib/armv7e-m/fpu/libm.a(lib_a-sf_scalbn.o)
 .data          0x0000000000000000        0x0 /usr/lib/gcc/arm-none-eabi/4.9.3/../../../arm-none-eabi/lib/armv7e-m/fpu/libm.a(lib_a-sf_scalbn.o)
 .bss           0x0000000000000000        0x0 /usr/lib/gcc/arm-none-eabi/4.9.3/../../../arm-none-eabi/lib/armv7e-m/fpu/libm.a(lib_a-sf_scalbn.o)
 .text          0x0000000000000000        0x0 /usr/lib/gcc/arm-none-eabi/4.9.3/../../../arm-none-eabi/lib/armv7e-m/fpu/libm.a(lib_a-sf_copysign.o)
 .data          0x0000000000000000        0x0 /usr/lib/gcc/arm-none-eabi/4.9.3/../../../arm-none-eabi/lib/armv7e-m/fpu/libm.a(lib_a-sf_copysign.o)
 .bss           0x0000000000000000        0x0 /usr/lib/gcc/arm-none-eabi/4.9.3/../../../arm-none-eabi/lib/armv7e-m/fpu/libm.a(lib_a-sf_copysign.o)
 .data          0x0000000000000000        0x0 /usr/lib/gcc/arm-none-eabi/4.9.3/armv7e-m/fpu/libgcc.a(_arm_addsubdf3.o)
 .bss           0x0000000000000000        0x0 /usr/lib/gcc/arm-none-eabi/4.9.3/armv7e-m/fpu/libgcc.a(_arm_addsubdf3.o)
 .data          0x0000000000000000        0x0 /usr/lib/gcc/arm-none-eabi/4.9.3/armv7e-m/fpu/libgcc.a(_arm_muldivdf3.o)
 .bss           0x0000000000000000        0x0 /usr/lib/gcc/arm-none-eabi/4.9.3/armv7e-m/fpu/libgcc.a(_arm_muldivdf3.o)
 .data          0x0000000000000000        0x0 /usr/lib/gcc/arm-none-eabi/4.9.3/armv7e-m/fpu/libgcc.a(_arm_fixdfsi.o)
 .bss           0x0000000000000000        0x0 /usr/lib/gcc/arm-none-eabi/4.9.3/armv7e-m/fpu/libgcc.a(_arm_fixdfsi.o)
 .data          0x0000000000000000        0x0 /usr/lib/gcc/arm-none-eabi/4.9.3/armv7e-m/fpu/libgcc.a(_arm_truncdfsf2.o)
 .bss           0x0000000000000000        0x0 /usr/lib/gcc/arm-none-eabi/4.9.3/armv7e-m/fpu/libgcc.a(_arm_truncdfsf2.o)
 .text          0x0000000000000000        0x0 /usr/lib/gcc/arm-none-eabi/4.9.3/../../../arm-none-eabi/lib/armv7e-m/fpu/libg.a(lib_a-errno.o)
 .data          0x0000000000000000        0x0 /usr/lib/gcc/arm-none-eabi/4.9.3/../../../arm-none-eabi/lib/armv7e-m/fpu/libg.a(lib_a-errno.o)
 .bss           0x0000000000000000        0x0 /usr/lib/gcc/arm-none-eabi/4.9.3/../../../arm-none-eabi/lib/armv7e-m/fpu/libg.a(lib_a-errno.o)
 .text          0x0000000000000000        0x0 /usr/lib/gcc/arm-none-eabi/4.9.3/../../../arm-none-eabi/lib/armv7e-m/fpu/libg.a(lib_a-impure.o)
 .data          0x0000000000000000        0x0 /usr/lib/gcc/arm-none-eabi/4.9.3/../../../arm-none-eabi/lib/armv7e-m/fpu/libg.a(lib_a-impure.o)
 .bss           0x0000000000000000        0x0 /usr/lib/gcc/arm-none-eabi/4.9.3/../../../arm-none-eabi/lib/armv7e-m/fpu/libg.a(lib_a-impure.o)
 .rodata._global_impure_ptr
                0x0000000000000000        0x4 /usr/lib/gcc/arm-none-eabi/4.9.3/../../../arm-none-eabi/lib/armv7e-m/fpu/libg.a(lib_a-impure.o)
 .data          0x0000000000000000        0x0 /usr/lib/gcc/arm-none-eabi/4.9.3/../../../arm-none-eabi/lib/armv7e-m/fpu/libg.a(lib_a-memcpy.o)
 .bss           0x0000000000000000        0x0 /usr/lib/gcc/arm-none-eabi/4.9.3/../../../arm-none-eabi/lib/armv7e-m/fpu/libg.a(lib_a-memcpy.o)
 .text          0x0000000000000000        0x0 /usr/lib/gcc/arm-none-eabi/4.9.3/../../../arm-none-eabi/lib/armv7e-m/fpu/libg.a(lib_a-memset.o)
 .data          0x0000000000000000        0x0 /usr/lib/gcc/arm-none-eabi/4.9.3/../../../arm-none-eabi/lib/armv7e-m/fpu/libg.a(lib_a-memset.o)
 .bss           0x0000000000000000        0x0 /usr/lib/gcc/arm-none-eabi/4.9.3/../../../arm-none-eabi/lib/armv7e-m/fpu/libg.a(lib_a-memset.o)
 .data          0x0000000000000000        0x0 /usr/lib/gcc/arm-none-eabi/4.9.3/../../../arm-none-eabi/lib/armv7e-m/fpu/libg.a(lib_a-strcmp.o)
 .bss           0x0000000000000000        0x0 /usr/lib/gcc/arm-none-eabi/4.9.3/../../../arm-none-eabi/lib/armv7e-m/fpu/libg.a(lib_a-strcmp.o)
 .eh_frame      0x0000000000000000       0x70 /usr/lib/gcc/arm-none-eabi/4.9.3/../../../arm-none-eabi/lib/armv7e-m/fpu/libg.a(lib_a-strcmp.o)
 .text          0x0000000000000000        0x0 /usr/lib/gcc/arm-none-eabi/4.9.3/../../../arm-none-eabi/lib/armv7e-m/fpu/libg.a(lib_a-strlen.o)
 .data          0x0000000000000000        0x0 /usr/lib/gcc/arm-none-eabi/4.9.3/../../../arm-none-eabi/lib/armv7e-m/fpu/libg.a(lib_a-strlen.o)
 .bss           0x0000000000000000        0x0 /usr/lib/gcc/arm-none-eabi/4.9.3/../../../arm-none-eabi/lib/armv7e-m/fpu/libg.a(lib_a-strlen.o)
 .text          0x0000000000000000        0x0 /usr/lib/gcc/arm-none-eabi/4.9.3/../../../arm-none-eabi/lib/armv7e-m/fpu/libg.a(lib_a-strpbrk.o)
 .data          0x0000000000000000        0x0 /usr/lib/gcc/arm-none-eabi/4.9.3/../../../arm-none-eabi/lib/armv7e-m/fpu/libg.a(lib_a-strpbrk.o)
 .bss           0x0000000000000000        0x0 /usr/lib/gcc/arm-none-eabi/4.9.3/../../../arm-none-eabi/lib/armv7e-m/fpu/libg.a(lib_a-strpbrk.o)
 .text          0x0000000000000000        0x0 /usr/lib/gcc/arm-none-eabi/4.9.3/../../../arm-none-eabi/lib/armv7e-m/fpu/libg.a(lib_a-strspn.o)
 .data          0x0000000000000000        0x0 /usr/lib/gcc/arm-none-eabi/4.9.3/../../../arm-none-eabi/lib/armv7e-m/fpu/libg.a(lib_a-strspn.o)
 .bss           0x0000000000000000        0x0 /usr/lib/gcc/arm-none-eabi/4.9.3/../../../arm-none-eabi/lib/armv7e-m/fpu/libg.a(lib_a-strspn.o)

Memory Configuration

Name             Origin             Length             Attributes
flash            0x0000000008000000 0x0000000000200000
ram0             0x0000000020000000 0x0000000000030000
ram1             0x0000000020000000 0x000000000001c000
ram2             0x000000002001c000 0x0000000000004000
ram3             0x0000000020020000 0x0000000000010000
ram4             0x0000000010000000 0x0000000000010000
ram5             0x0000000040024000 0x0000000000001000
ram6             0x0000000000000000 0x0000000000000000
ram7             0x0000000000000000 0x0000000000000000
*default*        0x0000000000000000 0xffffffffffffffff

Linker script and memory map

LOAD build/obj/crt0_v7m.o
LOAD build/obj/chcoreasm_v7m.o
LOAD build/obj/crt1.o
LOAD /tmp/cc0IPsVg.ltrans0.ltrans.o
LOAD /tmp/cc0IPsVg.ltrans1.ltrans.o
LOAD /tmp/cc0IPsVg.ltrans2.ltrans.o
LOAD /tmp/cc0IPsVg.ltrans3.ltrans.o
LOAD /tmp/cc0IPsVg.ltrans4.ltrans.o
LOAD /tmp/cc0IPsVg.ltrans5.ltrans.o
LOAD /tmp/cc0IPsVg.ltrans6.ltrans.o
LOAD /tmp/cc0IPsVg.ltrans7.ltrans.o
LOAD /tmp/cc0IPsVg.ltrans8.ltrans.o
LOAD /tmp/cc0IPsVg.ltrans9.ltrans.o
LOAD /tmp/cc0IPsVg.ltrans10.ltrans.o
LOAD /tmp/cc0IPsVg.ltrans11.ltrans.o
LOAD /tmp/cc0IPsVg.ltrans12.ltrans.o
LOAD /tmp/cc0IPsVg.ltrans13.ltrans.o
LOAD /tmp/cc0IPsVg.ltrans14.ltrans.o
LOAD build/obj/vectors.o
LOAD build/obj/chsys.o
LOAD build/obj/chdebug.o
LOAD build/obj/chvt.o
LOAD build/obj/chschd.o
LOAD build/obj/chthreads.o
LOAD build/obj/chtm.o
LOAD build/obj/chstats.o
LOAD build/obj/chdynamic.o
LOAD build/obj/chregistry.o
LOAD build/obj/chsem.o
LOAD build/obj/chmtx.o
LOAD build/obj/chcond.o
LOAD build/obj/chevents.o
LOAD build/obj/chmsg.o
LOAD build/obj/chmboxes.o
LOAD build/obj/chqueues.o
LOAD build/obj/chmemcore.o
LOAD build/obj/chheap.o
LOAD build/obj/chmempools.o
LOAD build/obj/chcore.o
LOAD build/obj/chcore_v7m.o
LOAD build/obj/osal.o
LOAD build/obj/hal.o
LOAD build/obj/st.o
LOAD build/obj/hal_buffers.o
LOAD build/obj/hal_queues.o
LOAD build/obj/hal_mmcsd.o
LOAD build/obj/can.o
LOAD build/obj/ext.o
LOAD build/obj/pal.o
LOAD build/obj/pwm.o
LOAD build/obj/sdc.o
LOAD build/obj/serial_usb.o
LOAD build/obj/spi.o
LOAD build/obj/uart.o
LOAD build/obj/usb.o
LOAD build/obj/wdg.o
LOAD build/obj/nvic.o
LOAD build/obj/hal_lld.o
LOAD build/obj/stm32_dma.o
LOAD build/obj/st_lld.o
LOAD build/obj/can_lld.o
LOAD build/obj/ext_lld.o
LOAD build/obj/ext_lld_isr.o
LOAD build/obj/pal_lld.o
LOAD build/obj/usb_lld.o
LOAD build/obj/sdc_lld.o
LOAD build/obj/spi_lld.o
LOAD build/obj/pwm_lld.o
LOAD build/obj/uart_lld.o
LOAD build/obj/wdg_lld.o
LOAD build/obj/board.o
LOAD build/obj/fatfs_diskio.o
LOAD build/obj/fatfs_syscall.o
LOAD build/obj/ff.o
LOAD build/obj/unicode.o
LOAD build/obj/shell.o
LOAD build/obj/evtimer.o
LOAD build/obj/syscalls.o
LOAD build/obj/memstreams.o
LOAD build/obj/chprintf.o
LOAD build/obj/flash.o
LOAD build/obj/sdlog.o
LOAD build/obj/shellcfg.o
LOAD build/obj/mpu6500.o
LOAD build/obj/attitude.o
LOAD build/obj/ist8310.o
LOAD build/obj/math_misc.o
LOAD build/obj/canBusProcess.o
LOAD build/obj/dbus.o
LOAD build/obj/gimbal.o
LOAD build/obj/params.o
LOAD build/obj/usbcfg.o
LOAD build/obj/calibrate_sensor.o
LOAD build/obj/shoot_pwm.o
LOAD build/obj/feeder.o
LOAD build/obj/exti.o
LOAD build/obj/imu_temp.o
LOAD build/obj/main.o
LOAD build/obj/dji_receiver.o
                0x0000000020000000                __ram0_start__ = ORIGIN (ram0)
                0x0000000000030000                __ram0_size__ = LENGTH (ram0)
                0x0000000020030000                __ram0_end__ = (__ram0_start__ + __ram0_size__)
                0x0000000020000000                __ram1_start__ = ORIGIN (ram1)
                0x000000000001c000                __ram1_size__ = LENGTH (ram1)
                0x000000002001c000                __ram1_end__ = (__ram1_start__ + __ram1_size__)
                0x000000002001c000                __ram2_start__ = ORIGIN (ram2)
                0x0000000000004000                __ram2_size__ = LENGTH (ram2)
                0x0000000020020000                __ram2_end__ = (__ram2_start__ + __ram2_size__)
                0x0000000020020000                __ram3_start__ = ORIGIN (ram3)
                0x0000000000010000                __ram3_size__ = LENGTH (ram3)
                0x0000000020030000                __ram3_end__ = (__ram3_start__ + __ram3_size__)
                0x0000000010000000                __ram4_start__ = ORIGIN (ram4)
                0x0000000000010000                __ram4_size__ = LENGTH (ram4)
                0x0000000010010000                __ram4_end__ = (__ram4_start__ + __ram4_size__)
                0x0000000040024000                __ram5_start__ = ORIGIN (ram5)
                0x0000000000001000                __ram5_size__ = LENGTH (ram5)
                0x0000000040025000                __ram5_end__ = (__ram5_start__ + __ram5_size__)
                0x0000000000000000                __ram6_start__ = ORIGIN (ram6)
                0x0000000000000000                __ram6_size__ = LENGTH (ram6)
                0x0000000000000000                __ram6_end__ = (__ram6_start__ + __ram6_size__)
                0x0000000000000000                __ram7_start__ = ORIGIN (ram7)
                0x0000000000000000                __ram7_size__ = LENGTH (ram7)
                0x0000000000000000                __ram7_end__ = (__ram7_start__ + __ram7_size__)
                0x0000000000000000                . = 0x0
                0x0000000000000000                _text = .

startup         0x0000000008000000      0x1c0
 *(.vectors)
 .vectors       0x0000000008000000      0x1c0 /tmp/cc0IPsVg.ltrans6.ltrans.o
                0x0000000008000000                _vectors

constructors    0x00000000080001c0        0x0
                0x00000000080001c0                __init_array_start = .
 *(SORT(.init_array.*))
 *(.init_array)
                0x00000000080001c0                __init_array_end = .

destructors     0x00000000080001c0        0x0
                0x00000000080001c0                __fini_array_start = .
 *(.fini_array)
 *(SORT(.fini_array.*))
                0x00000000080001c0                __fini_array_end = .

.text           0x00000000080001c0     0xf5b4
 *(.text)
 .text          0x00000000080001c0      0x108 build/obj/crt0_v7m.o
                0x00000000080001c0                Reset_Handler
 *fill*         0x00000000080002c8        0x8 
 .text          0x00000000080002d0       0x48 build/obj/chcoreasm_v7m.o
                0x00000000080002d0                _port_switch
                0x00000000080002e8                _port_thread_start
                0x0000000008000300                _port_switch_from_isr
                0x0000000008000314                _port_exit_from_isr
 *fill*         0x0000000008000318        0x8 
 .text          0x0000000008000320      0x370 /usr/lib/gcc/arm-none-eabi/4.9.3/armv7e-m/fpu/libgcc.a(_arm_addsubdf3.o)
                0x0000000008000320                __aeabi_drsub
                0x0000000008000328                __aeabi_dsub
                0x0000000008000328                __subdf3
                0x000000000800032c                __adddf3
                0x000000000800032c                __aeabi_dadd
                0x00000000080005a4                __aeabi_ui2d
                0x00000000080005a4                __floatunsidf
                0x00000000080005c4                __floatsidf
                0x00000000080005c4                __aeabi_i2d
                0x00000000080005e8                __extendsfdf2
                0x00000000080005e8                __aeabi_f2d
                0x0000000008000624                __aeabi_ul2d
                0x0000000008000624                __floatundidf
                0x0000000008000634                __floatdidf
                0x0000000008000634                __aeabi_l2d
 .text          0x0000000008000690      0x424 /usr/lib/gcc/arm-none-eabi/4.9.3/armv7e-m/fpu/libgcc.a(_arm_muldivdf3.o)
                0x0000000008000690                __aeabi_dmul
                0x0000000008000690                __muldf3
                0x00000000080008e4                __aeabi_ddiv
                0x00000000080008e4                __divdf3
 *fill*         0x0000000008000ab4        0xc 
 .text          0x0000000008000ac0       0x50 /usr/lib/gcc/arm-none-eabi/4.9.3/armv7e-m/fpu/libgcc.a(_arm_fixdfsi.o)
                0x0000000008000ac0                __fixdfsi
                0x0000000008000ac0                __aeabi_d2iz
 .text          0x0000000008000b10       0xa0 /usr/lib/gcc/arm-none-eabi/4.9.3/armv7e-m/fpu/libgcc.a(_arm_truncdfsf2.o)
                0x0000000008000b10                __aeabi_d2f
                0x0000000008000b10                __truncdfsf2
 .text          0x0000000008000bb0      0x134 /usr/lib/gcc/arm-none-eabi/4.9.3/../../../arm-none-eabi/lib/armv7e-m/fpu/libg.a(lib_a-memcpy.o)
                0x0000000008000bb0                memcpy
 *fill*         0x0000000008000ce4        0xc 
 .text          0x0000000008000cf0      0x2e0 /usr/lib/gcc/arm-none-eabi/4.9.3/../../../arm-none-eabi/lib/armv7e-m/fpu/libg.a(lib_a-strcmp.o)
                0x0000000008000cf8                strcmp
 *(.text.*)
 .text.startup.main
                0x0000000008000fd0     0x11f4 /tmp/cc0IPsVg.ltrans0.ltrans.o
                0x0000000008000fd0                main
 *fill*         0x00000000080021c4        0xc 
 .text._ZL15Attitude_threadPv.lto_priv.83
                0x00000000080021d0      0xfc0 /tmp/cc0IPsVg.ltrans1.ltrans.o
                0x00000000080021d0                Attitude_thread(void*) [clone .lto_priv.83]
 .text.SVC_Handler
                0x0000000008003190       0x20 /tmp/cc0IPsVg.ltrans2.ltrans.o
                0x0000000008003190                SVC_Handler
 .text._idle_thread.lto_priv.99
                0x00000000080031b0        0x4 /tmp/cc0IPsVg.ltrans2.ltrans.o
                0x00000000080031b0                _idle_thread.lto_priv.99
 *fill*         0x00000000080031b4        0xc 
 .text.stSetAlarm
                0x00000000080031c0       0x20 /tmp/cc0IPsVg.ltrans2.ltrans.o
                0x00000000080031c0                stSetAlarm
 .text._port_irq_epilogue
                0x00000000080031e0       0x64 /tmp/cc0IPsVg.ltrans2.ltrans.o
                0x00000000080031e0                _port_irq_epilogue
 *fill*         0x0000000008003244        0xc 
 .text._stats_increase_irq
                0x0000000008003250       0x20 /tmp/cc0IPsVg.ltrans2.ltrans.o
                0x0000000008003250                _stats_increase_irq
 .text.chTMChainMeasurementToX
                0x0000000008003270       0x3c /tmp/cc0IPsVg.ltrans2.ltrans.o
                0x0000000008003270                chTMChainMeasurementToX
 *fill*         0x00000000080032ac        0x4 
 .text.chTMStopMeasurementX
                0x00000000080032b0       0x48 /tmp/cc0IPsVg.ltrans2.ltrans.o
                0x00000000080032b0                chTMStopMeasurementX
 *fill*         0x00000000080032f8        0x8 
 .text._stats_stop_measure_crit_isr
                0x0000000008003300        0xc /tmp/cc0IPsVg.ltrans2.ltrans.o
                0x0000000008003300                _stats_stop_measure_crit_isr
 *fill*         0x000000000800330c        0x4 
 .text._stats_stop_measure_crit_thd
                0x0000000008003310        0xc /tmp/cc0IPsVg.ltrans2.ltrans.o
                0x0000000008003310                _stats_stop_measure_crit_thd
 *fill*         0x000000000800331c        0x4 
 .text.chTMStartMeasurementX
                0x0000000008003320        0xc /tmp/cc0IPsVg.ltrans2.ltrans.o
                0x0000000008003320                chTMStartMeasurementX
 *fill*         0x000000000800332c        0x4 
 .text._stats_start_measure_crit_isr
                0x0000000008003330        0xc /tmp/cc0IPsVg.ltrans2.ltrans.o
                0x0000000008003330                _stats_start_measure_crit_isr
 *fill*         0x000000000800333c        0x4 
 .text._stats_start_measure_crit_thd
                0x0000000008003340        0xc /tmp/cc0IPsVg.ltrans2.ltrans.o
                0x0000000008003340                _stats_start_measure_crit_thd
 *fill*         0x000000000800334c        0x4 
 .text._dbg_trace
                0x0000000008003350       0x38 /tmp/cc0IPsVg.ltrans2.ltrans.o
                0x0000000008003350                _dbg_trace
 *fill*         0x0000000008003388        0x8 
 .text.chSchDoRescheduleAhead
                0x0000000008003390       0x78 /tmp/cc0IPsVg.ltrans2.ltrans.o
 *fill*         0x0000000008003408        0x8 
 .text.chSchDoReschedule
                0x0000000008003410        0x4 /tmp/cc0IPsVg.ltrans2.ltrans.o
                0x0000000008003410                chSchDoReschedule
 *fill*         0x0000000008003414        0xc 
 .text.chDbgCheckClassS
                0x0000000008003420       0x20 /tmp/cc0IPsVg.ltrans2.ltrans.o
                0x0000000008003420                chDbgCheckClassS
 .text.ibqReleaseEmptyBufferS
                0x0000000008003440       0x48 /tmp/cc0IPsVg.ltrans2.ltrans.o
                0x0000000008003440                ibqReleaseEmptyBufferS
 *fill*         0x0000000008003488        0x8 
 .text.chSchGoSleepS
                0x0000000008003490       0x64 /tmp/cc0IPsVg.ltrans2.ltrans.o
                0x0000000008003490                chSchGoSleepS
 *fill*         0x00000000080034f4        0xc 
 .text.chThdSuspendS
                0x0000000008003500       0x2c /tmp/cc0IPsVg.ltrans2.ltrans.o
                0x0000000008003500                chThdSuspendS
 *fill*         0x000000000800352c        0x4 
 .text.chDbgCheckClassI
                0x0000000008003530       0x20 /tmp/cc0IPsVg.ltrans2.ltrans.o
                0x0000000008003530                chDbgCheckClassI
 .text.chThdCreateI
                0x0000000008003550       0xb8 /tmp/cc0IPsVg.ltrans2.ltrans.o
                0x0000000008003550                chThdCreateI
 *fill*         0x0000000008003608        0x8 
 .text.chSchRescheduleS
                0x0000000008003610       0x28 /tmp/cc0IPsVg.ltrans2.ltrans.o
                0x0000000008003610                chSchRescheduleS
 *fill*         0x0000000008003638        0x8 
 .text.chSchGoSleepTimeoutS
                0x0000000008003640      0x170 /tmp/cc0IPsVg.ltrans2.ltrans.o
                0x0000000008003640                chSchGoSleepTimeoutS
 .text.chThdEnqueueTimeoutS
                0x00000000080037b0       0x28 /tmp/cc0IPsVg.ltrans2.ltrans.o
                0x00000000080037b0                chThdEnqueueTimeoutS
 *fill*         0x00000000080037d8        0x8 
 .text.ibqGetFullBufferTimeoutS
                0x00000000080037e0       0x44 /tmp/cc0IPsVg.ltrans2.ltrans.o
                0x00000000080037e0                ibqGetFullBufferTimeoutS
 *fill*         0x0000000008003824        0xc 
 .text.chSchReadyI
                0x0000000008003830       0x50 /tmp/cc0IPsVg.ltrans2.ltrans.o
                0x0000000008003830                chSchReadyI
 .text.chEvtBroadcastFlagsI
                0x0000000008003880       0x9c /tmp/cc0IPsVg.ltrans2.ltrans.o
                0x0000000008003880                chEvtBroadcastFlagsI
 *fill*         0x000000000800391c        0x4 
 .text.chThdDequeueAllI
                0x0000000008003920       0x3c /tmp/cc0IPsVg.ltrans2.ltrans.o
                0x0000000008003920                chThdDequeueAllI
 *fill*         0x000000000800395c        0x4 
 .text.chThdResumeI
                0x0000000008003960       0x2c /tmp/cc0IPsVg.ltrans2.ltrans.o
                0x0000000008003960                chThdResumeI
 *fill*         0x000000000800398c        0x4 
 .text.chThdExitS
                0x0000000008003990       0x4c /tmp/cc0IPsVg.ltrans2.ltrans.o
                0x0000000008003990                chThdExitS
 *fill*         0x00000000080039dc        0x4 
 .text._dbg_check_leave_isr
                0x00000000080039e0       0x2c /tmp/cc0IPsVg.ltrans2.ltrans.o
                0x00000000080039e0                _dbg_check_leave_isr
 *fill*         0x0000000008003a0c        0x4 
 .text._dbg_check_enter_isr
                0x0000000008003a10       0x2c /tmp/cc0IPsVg.ltrans2.ltrans.o
                0x0000000008003a10                _dbg_check_enter_isr
 *fill*         0x0000000008003a3c        0x4 
 .text._dbg_check_unlock_from_isr
                0x0000000008003a40       0x24 /tmp/cc0IPsVg.ltrans2.ltrans.o
                0x0000000008003a40                _dbg_check_unlock_from_isr
 *fill*         0x0000000008003a64        0xc 
 .text._dbg_check_lock_from_isr
                0x0000000008003a70       0x24 /tmp/cc0IPsVg.ltrans2.ltrans.o
                0x0000000008003a70                _dbg_check_lock_from_isr
 *fill*         0x0000000008003a94        0xc 
 .text.wakeup   0x0000000008003aa0       0x6c /tmp/cc0IPsVg.ltrans2.ltrans.o
 *fill*         0x0000000008003b0c        0x4 
 .text._dbg_check_unlock
                0x0000000008003b10       0x20 /tmp/cc0IPsVg.ltrans2.ltrans.o
                0x0000000008003b10                _dbg_check_unlock
 .text._dbg_check_lock
                0x0000000008003b30       0x20 /tmp/cc0IPsVg.ltrans2.ltrans.o
                0x0000000008003b30                _dbg_check_lock
 .text.ibqGetTimeout
                0x0000000008003b50       0x90 /tmp/cc0IPsVg.ltrans2.ltrans.o
                0x0000000008003b50                ibqGetTimeout
 .text.chCoreAlloc
                0x0000000008003be0       0x70 /tmp/cc0IPsVg.ltrans2.ltrans.o
                0x0000000008003be0                chCoreAlloc
 .text.chThdExit
                0x0000000008003c50       0x18 /tmp/cc0IPsVg.ltrans2.ltrans.o
                0x0000000008003c50                chThdExit
 *fill*         0x0000000008003c68        0x8 
 .text.chThdSleepUntil
                0x0000000008003c70       0x54 /tmp/cc0IPsVg.ltrans2.ltrans.o
                0x0000000008003c70                chThdSleepUntil
 *fill*         0x0000000008003cc4        0xc 
 .text.chThdSleep
                0x0000000008003cd0       0x5c /tmp/cc0IPsVg.ltrans2.ltrans.o
                0x0000000008003cd0                chThdSleep
 *fill*         0x0000000008003d2c        0x4 
 .text.chThdCreateStatic
                0x0000000008003d30       0x90 /tmp/cc0IPsVg.ltrans2.ltrans.o
                0x0000000008003d30                chThdCreateStatic
 .text.chSysPolledDelayX
                0x0000000008003dc0       0x14 /tmp/cc0IPsVg.ltrans2.ltrans.o
                0x0000000008003dc0                chSysPolledDelayX
 *fill*         0x0000000008003dd4        0xc 
 .text._unhandled_exception
                0x0000000008003de0        0x4 /tmp/cc0IPsVg.ltrans2.ltrans.o
                0x0000000008003de0                DebugMon_Handler
                0x0000000008003de0                Vector1A0
                0x0000000008003de0                Vector11C
                0x0000000008003de0                HardFault_Handler
                0x0000000008003de0                Vector1B8
                0x0000000008003de0                Vector19C
                0x0000000008003de0                SysTick_Handler
                0x0000000008003de0                VectorDC
                0x0000000008003de0                PendSV_Handler
                0x0000000008003de0                Vector168
                0x0000000008003de0                NMI_Handler
                0x0000000008003de0                VectorC8
                0x0000000008003de0                VectorA8
                0x0000000008003de0                Vector160
                0x0000000008003de0                Vector1B0
                0x0000000008003de0                UsageFault_Handler
                0x0000000008003de0                VectorEC
                0x0000000008003de0                Vector40
                0x0000000008003de0                Vector108
                0x0000000008003de0                VectorBC
                0x0000000008003de0                Vector190
                0x0000000008003de0                Vector188
                0x0000000008003de0                Vector198
                0x0000000008003de0                Vector118
                0x0000000008003de0                VectorCC
                0x0000000008003de0                Vector54
                0x0000000008003de0                VectorD8
                0x0000000008003de0                Vector24
                0x0000000008003de0                Vector1AC
                0x0000000008003de0                Vector178
                0x0000000008003de0                Vector1A4
                0x0000000008003de0                VectorD0
                0x0000000008003de0                Vector1B4
                0x0000000008003de0                VectorC0
                0x0000000008003de0                Vector134
                0x0000000008003de0                Vector100
                0x0000000008003de0                VectorF4
                0x0000000008003de0                MemManage_Handler
                0x0000000008003de0                VectorA0
                0x0000000008003de0                VectorC4
                0x0000000008003de0                Vector180
                0x0000000008003de0                Vector114
                0x0000000008003de0                Vector164
                0x0000000008003de0                Vector1C
                0x0000000008003de0                Vector1BC
                0x0000000008003de0                Vector17C
                0x0000000008003de0                Vector1A8
                0x0000000008003de0                Vector16C
                0x0000000008003de0                Vector15C
                0x0000000008003de0                Vector88
                0x0000000008003de0                Vector184
                0x0000000008003de0                Vector10C
                0x0000000008003de0                BusFault_Handler
                0x0000000008003de0                Vector50
                0x0000000008003de0                Vector194
                0x0000000008003de0                Vector28
                0x0000000008003de0                Vector34
                0x0000000008003de0                Vector20
                0x0000000008003de0                Vector18C
 *fill*         0x0000000008003de4        0xc 
 .text.__init_ram_areas
                0x0000000008003df0       0x4c /tmp/cc0IPsVg.ltrans2.ltrans.o
                0x0000000008003df0                __init_ram_areas
 *fill*         0x0000000008003e3c        0x4 
 .text.__default_exit
                0x0000000008003e40        0x4 /tmp/cc0IPsVg.ltrans2.ltrans.o
                0x0000000008003e40                __default_exit
 *fill*         0x0000000008003e44        0xc 
 .text.__late_init
                0x0000000008003e50        0x4 /tmp/cc0IPsVg.ltrans2.ltrans.o
                0x0000000008003e50                __late_init
 *fill*         0x0000000008003e54        0xc 
 .text.__core_init
                0x0000000008003e60        0x4 /tmp/cc0IPsVg.ltrans2.ltrans.o
                0x0000000008003e60                __core_init
 *fill*         0x0000000008003e64        0xc 
 .text.sduInterruptTransmitted
                0x0000000008003e70        0x4 /tmp/cc0IPsVg.ltrans3.ltrans.o
                0x0000000008003e70                sduInterruptTransmitted
 *fill*         0x0000000008003e74        0xc 
 .text.usbStartTransmitI
                0x0000000008003e80       0x64 /tmp/cc0IPsVg.ltrans3.ltrans.o
                0x0000000008003e80                usbStartTransmitI
 *fill*         0x0000000008003ee4        0xc 
 .text.usbStartReceiveI
                0x0000000008003ef0       0x64 /tmp/cc0IPsVg.ltrans3.ltrans.o
                0x0000000008003ef0                usbStartReceiveI
 *fill*         0x0000000008003f54        0xc 
 .text._usb_ep0setup
                0x0000000008003f60      0x434 /tmp/cc0IPsVg.ltrans3.ltrans.o
                0x0000000008003f60                _usb_ep0setup
 *fill*         0x0000000008004394        0xc 
 .text.usbInitEndpointI
                0x00000000080043a0      0x1c4 /tmp/cc0IPsVg.ltrans3.ltrans.o
                0x00000000080043a0                usbInitEndpointI
 *fill*         0x0000000008004564        0xc 
 .text.spiReleaseBus
                0x0000000008004570       0xe4 /tmp/cc0IPsVg.ltrans3.ltrans.o
                0x0000000008004570                spiReleaseBus
 *fill*         0x0000000008004654        0xc 
 .text.spiAcquireBus
                0x0000000008004660      0x144 /tmp/cc0IPsVg.ltrans3.ltrans.o
                0x0000000008004660                spiAcquireBus
 *fill*         0x00000000080047a4        0xc 
 .text.spiReceive
                0x00000000080047b0       0xc0 /tmp/cc0IPsVg.ltrans3.ltrans.o
                0x00000000080047b0                spiReceive
 .text.spiSend  0x0000000008004870       0xc0 /tmp/cc0IPsVg.ltrans3.ltrans.o
                0x0000000008004870                spiSend
 .text.spiUnselect
                0x0000000008004930       0x74 /tmp/cc0IPsVg.ltrans3.ltrans.o
                0x0000000008004930                spiUnselect
 *fill*         0x00000000080049a4        0xc 
 .text.spiSelect
                0x00000000080049b0       0x74 /tmp/cc0IPsVg.ltrans3.ltrans.o
                0x00000000080049b0                spiSelect
 *fill*         0x0000000008004a24        0xc 
 .text._mmcsd_get_slice
                0x0000000008004a30       0x60 /tmp/cc0IPsVg.ltrans4.ltrans.o
 .text.unlikely._mmcsd_get_capacity
                0x0000000008004a90       0x6c /tmp/cc0IPsVg.ltrans4.ltrans.o
 *fill*         0x0000000008004afc        0x4 
 .text.sdcConnect
                0x0000000008004b00      0x3f8 /tmp/cc0IPsVg.ltrans4.ltrans.o
                0x0000000008004b00                sdcConnect
 *fill*         0x0000000008004ef8        0x8 
 .text.obqPostFullBufferS
                0x0000000008004f00       0x60 /tmp/cc0IPsVg.ltrans4.ltrans.o
 .text.obqGetEmptyBufferTimeoutS
                0x0000000008004f60       0x44 /tmp/cc0IPsVg.ltrans4.ltrans.o
 *fill*         0x0000000008004fa4        0xc 
 .text._sdc_wait_for_transfer_state
                0x0000000008004fb0       0x40 /tmp/cc0IPsVg.ltrans4.ltrans.o
                0x0000000008004fb0                _sdc_wait_for_transfer_state
 .text.obqGetFullBufferI
                0x0000000008004ff0       0x28 /tmp/cc0IPsVg.ltrans4.ltrans.o
                0x0000000008004ff0                obqGetFullBufferI
 *fill*         0x0000000008005018        0x8 
 .text.obqWriteTimeout
                0x0000000008005020      0x17c /tmp/cc0IPsVg.ltrans4.ltrans.o
                0x0000000008005020                obqWriteTimeout
 *fill*         0x000000000800519c        0x4 
 .text.obqPutTimeout
                0x00000000080051a0       0xa0 /tmp/cc0IPsVg.ltrans4.ltrans.o
                0x00000000080051a0                obqPutTimeout
 .text.ibqReadTimeout
                0x0000000008005240      0x168 /tmp/cc0IPsVg.ltrans4.ltrans.o
                0x0000000008005240                ibqReadTimeout
 *fill*         0x00000000080053a8        0x8 
 .text.matlab_thread
                0x00000000080053b0       0xa0 /tmp/cc0IPsVg.ltrans5.ltrans.o
 .text.flashWrite.part.5.lto_priv.124
                0x0000000008005450       0xa8 /tmp/cc0IPsVg.ltrans5.ltrans.o
                0x0000000008005450                flashWrite.part.5.lto_priv.124
 *fill*         0x00000000080054f8        0x8 
 .text.flashUnlock.part.1.lto_priv.125
                0x0000000008005500       0x20 /tmp/cc0IPsVg.ltrans5.ltrans.o
                0x0000000008005500                flashUnlock.part.1.lto_priv.125
 .text.flashRead
                0x0000000008005520       0x58 /tmp/cc0IPsVg.ltrans5.ltrans.o
                0x0000000008005520                flashRead
 *fill*         0x0000000008005578        0x8 
 .text.chprintf
                0x0000000008005580      0x414 /tmp/cc0IPsVg.ltrans5.ltrans.o
                0x0000000008005580                chprintf
 *fill*         0x0000000008005994        0xc 
 .text.cmd_test
                0x00000000080059a0       0x50 /tmp/cc0IPsVg.ltrans5.ltrans.o
                0x00000000080059a0                cmd_test
 .text.cmd_calibrate
                0x00000000080059f0      0x9a4 /tmp/cc0IPsVg.ltrans5.ltrans.o
                0x00000000080059f0                cmd_calibrate
 *fill*         0x0000000008006394        0xc 
 .text.cmd_data
                0x00000000080063a0       0xd8 /tmp/cc0IPsVg.ltrans5.ltrans.o
                0x00000000080063a0                cmd_data
 *fill*         0x0000000008006478        0x8 
 .text.sdc_lld_is_write_protected
                0x0000000008006480        0x4 /tmp/cc0IPsVg.ltrans6.ltrans.o
                0x0000000008006480                sdc_lld_is_write_protected
 *fill*         0x0000000008006484        0xc 
 .text.sdc_lld_is_card_inserted
                0x0000000008006490        0x4 /tmp/cc0IPsVg.ltrans6.ltrans.o
                0x0000000008006490                sdc_lld_is_card_inserted
 *fill*         0x0000000008006494        0xc 
 .text.pwm_lld_serve_interrupt
                0x00000000080064a0       0x5c /tmp/cc0IPsVg.ltrans6.ltrans.o
 *fill*         0x00000000080064fc        0x4 
 .text.spi_lld_serve_tx_interrupt.lto_priv.118
                0x0000000008006500       0x1c /tmp/cc0IPsVg.ltrans6.ltrans.o
                0x0000000008006500                spi_lld_serve_tx_interrupt.lto_priv.118
 *fill*         0x000000000800651c        0x4 
 .text.cmd_info
                0x0000000008006520       0xbc /tmp/cc0IPsVg.ltrans6.ltrans.o
 *fill*         0x00000000080065dc        0x4 
 .text.VectorF8
                0x00000000080065e0       0x20 /tmp/cc0IPsVg.ltrans6.ltrans.o
 .text.VectorF0
                0x0000000008006600       0x20 /tmp/cc0IPsVg.ltrans6.ltrans.o
 .text.VectorB8
                0x0000000008006620       0x20 /tmp/cc0IPsVg.ltrans6.ltrans.o
 .text.VectorB4
                0x0000000008006640       0x20 /tmp/cc0IPsVg.ltrans6.ltrans.o
 .text.VectorAC
                0x0000000008006660       0x20 /tmp/cc0IPsVg.ltrans6.ltrans.o
 .text.VectorA4
                0x0000000008006680       0x20 /tmp/cc0IPsVg.ltrans6.ltrans.o
 .text.serve_usart_irq
                0x00000000080066a0       0xc4 /tmp/cc0IPsVg.ltrans6.ltrans.o
 *fill*         0x0000000008006764        0xc 
 .text.Vector110
                0x0000000008006770       0x20 /tmp/cc0IPsVg.ltrans6.ltrans.o
 .text.VectorD4
                0x0000000008006790       0x20 /tmp/cc0IPsVg.ltrans6.ltrans.o
 .text.uart_lld_serve_tx_end_irq.lto_priv.151
                0x00000000080067b0       0x80 /tmp/cc0IPsVg.ltrans6.ltrans.o
                0x00000000080067b0                uart_lld_serve_tx_end_irq.lto_priv.151
 .text.uart_lld_serve_rx_end_irq.lto_priv.150
                0x0000000008006830       0xbc /tmp/cc0IPsVg.ltrans6.ltrans.o
                0x0000000008006830                uart_lld_serve_rx_end_irq.lto_priv.150
 *fill*         0x00000000080068ec        0x4 
 .text.spi_lld_serve_rx_interrupt.lto_priv.117
                0x00000000080068f0       0x98 /tmp/cc0IPsVg.ltrans6.ltrans.o
                0x00000000080068f0                spi_lld_serve_rx_interrupt.lto_priv.117
 *fill*         0x0000000008006988        0x8 
 .text.Vector104
                0x0000000008006990       0x48 /tmp/cc0IPsVg.ltrans6.ltrans.o
 *fill*         0x00000000080069d8        0x8 
 .text.long_to_string_with_divisor.lto_priv.158
                0x00000000080069e0       0x48 /tmp/cc0IPsVg.ltrans6.ltrans.o
                0x00000000080069e0                long_to_string_with_divisor.lto_priv.158
 *fill*         0x0000000008006a28        0x8 
 .text.__early_init
                0x0000000008006a30       0xc8 /tmp/cc0IPsVg.ltrans6.ltrans.o
                0x0000000008006a30                __early_init
 *fill*         0x0000000008006af8        0x8 
 .text.sdc_lld_collect_errors.isra.0.lto_priv.165
                0x0000000008006b00       0x3c /tmp/cc0IPsVg.ltrans6.ltrans.o
                0x0000000008006b00                sdc_lld_collect_errors.isra.0.lto_priv.165
 *fill*         0x0000000008006b3c        0x4 
 .text.sdc_lld_send_cmd_long_crc
                0x0000000008006b40       0x3c /tmp/cc0IPsVg.ltrans6.ltrans.o
                0x0000000008006b40                sdc_lld_send_cmd_long_crc
 *fill*         0x0000000008006b7c        0x4 
 .text.sdc_lld_send_cmd_short_crc
                0x0000000008006b80       0x30 /tmp/cc0IPsVg.ltrans6.ltrans.o
                0x0000000008006b80                sdc_lld_send_cmd_short_crc
 .text.sdc_lld_write_aligned.part.5.lto_priv.173
                0x0000000008006bb0       0xa8 /tmp/cc0IPsVg.ltrans6.ltrans.o
                0x0000000008006bb0                sdc_lld_write_aligned.part.5.lto_priv.173
 *fill*         0x0000000008006c58        0x8 
 .text.sdc_lld_read_aligned.part.4.lto_priv.174
                0x0000000008006c60       0xa4 /tmp/cc0IPsVg.ltrans6.ltrans.o
                0x0000000008006c60                sdc_lld_read_aligned.part.4.lto_priv.174
 *fill*         0x0000000008006d04        0xc 
 .text.sdc_lld_read_special
                0x0000000008006d10       0xb4 /tmp/cc0IPsVg.ltrans6.ltrans.o
                0x0000000008006d10                sdc_lld_read_special
 *fill*         0x0000000008006dc4        0xc 
 .text.shell_thread.lto_priv.96
                0x0000000008006dd0      0x224 /tmp/cc0IPsVg.ltrans6.ltrans.o
                0x0000000008006dd0                shell_thread.lto_priv.96
 *fill*         0x0000000008006ff4        0xc 
 .text.cmd_systime
                0x0000000008007000       0x70 /tmp/cc0IPsVg.ltrans6.ltrans.o
 .text.Vector4C
                0x0000000008007070       0x3c /tmp/cc0IPsVg.ltrans7.ltrans.o
                0x0000000008007070                Vector4C
 *fill*         0x00000000080070ac        0x4 
 .text.Vector48
                0x00000000080070b0       0x3c /tmp/cc0IPsVg.ltrans7.ltrans.o
                0x00000000080070b0                Vector48
 *fill*         0x00000000080070ec        0x4 
 .text.Vector170
                0x00000000080070f0       0x3c /tmp/cc0IPsVg.ltrans7.ltrans.o
                0x00000000080070f0                Vector170
 *fill*         0x000000000800712c        0x4 
 .text.Vector138
                0x0000000008007130       0x3c /tmp/cc0IPsVg.ltrans7.ltrans.o
                0x0000000008007130                Vector138
 *fill*         0x000000000800716c        0x4 
 .text.VectorE8
                0x0000000008007170       0x3c /tmp/cc0IPsVg.ltrans7.ltrans.o
                0x0000000008007170                VectorE8
 *fill*         0x00000000080071ac        0x4 
 .text.VectorE4
                0x00000000080071b0       0x3c /tmp/cc0IPsVg.ltrans7.ltrans.o
                0x00000000080071b0                VectorE4
 *fill*         0x00000000080071ec        0x4 
 .text.Vector44
                0x00000000080071f0       0x3c /tmp/cc0IPsVg.ltrans7.ltrans.o
                0x00000000080071f0                Vector44
 *fill*         0x000000000800722c        0x4 
 .text.VectorE0
                0x0000000008007230       0x8c /tmp/cc0IPsVg.ltrans7.ltrans.o
                0x0000000008007230                VectorE0
 *fill*         0x00000000080072bc        0x4 
 .text.sdc_lld_error_cleanup.lto_priv.160
                0x00000000080072c0       0x6c /tmp/cc0IPsVg.ltrans7.ltrans.o
                0x00000000080072c0                sdc_lld_error_cleanup.lto_priv.160
 *fill*         0x000000000800732c        0x4 
 .text.usb_lld_start_in
                0x0000000008007330       0xac /tmp/cc0IPsVg.ltrans7.ltrans.o
                0x0000000008007330                usb_lld_start_in
 *fill*         0x00000000080073dc        0x4 
 .text.otg_epin_handler
                0x00000000080073e0       0xd4 /tmp/cc0IPsVg.ltrans7.ltrans.o
 *fill*         0x00000000080074b4        0xc 
 .text.usb_lld_start_out
                0x00000000080074c0       0x84 /tmp/cc0IPsVg.ltrans7.ltrans.o
                0x00000000080074c0                usb_lld_start_out
 *fill*         0x0000000008007544        0xc 
 .text.otg_epout_handler
                0x0000000008007550       0xac /tmp/cc0IPsVg.ltrans7.ltrans.o
 *fill*         0x00000000080075fc        0x4 
 .text.usb_lld_serve_interrupt
                0x0000000008007600      0x408 /tmp/cc0IPsVg.ltrans7.ltrans.o
 *fill*         0x0000000008007a08        0x8 
 .text.Vector174
                0x0000000008007a10       0x20 /tmp/cc0IPsVg.ltrans7.ltrans.o
                0x0000000008007a10                Vector174
 .text.Vector14C
                0x0000000008007a30       0x20 /tmp/cc0IPsVg.ltrans7.ltrans.o
                0x0000000008007a30                Vector14C
 .text.sdc_lld_wait_transaction_end.lto_priv.159
                0x0000000008007a50       0xcc /tmp/cc0IPsVg.ltrans7.ltrans.o
                0x0000000008007a50                sdc_lld_wait_transaction_end.lto_priv.159
 *fill*         0x0000000008007b1c        0x4 
 .text.usb_lld_pump
                0x0000000008007b20      0x298 /tmp/cc0IPsVg.ltrans7.ltrans.o
                0x0000000008007b20                usb_lld_pump
 *fill*         0x0000000008007db8        0x8 
 .text.PID_VEL  0x0000000008007dc0       0xcc /tmp/cc0IPsVg.ltrans8.ltrans.o
 *fill*         0x0000000008007e8c        0x4 
 .text.turn_angle
                0x0000000008007e90       0xd4 /tmp/cc0IPsVg.ltrans8.ltrans.o
 *fill*         0x0000000008007f64        0xc 
 .text.get_descriptor.lto_priv.101
                0x0000000008007f70       0x30 /tmp/cc0IPsVg.ltrans8.ltrans.o
                0x0000000008007f70                get_descriptor.lto_priv.101
 .text.pwm_thd.lto_priv.91
                0x0000000008007fa0       0xf0 /tmp/cc0IPsVg.ltrans8.ltrans.o
                0x0000000008007fa0                pwm_thd.lto_priv.91
 .text.sof_handler.lto_priv.102
                0x0000000008008090       0xb8 /tmp/cc0IPsVg.ltrans8.ltrans.o
                0x0000000008008090                sof_handler.lto_priv.102
 *fill*         0x0000000008008148        0x8 
 .text.usb_event.lto_priv.100
                0x0000000008008150      0x100 /tmp/cc0IPsVg.ltrans8.ltrans.o
                0x0000000008008150                usb_event.lto_priv.100
 .text.params_set.part.0.lto_priv.111
                0x0000000008008250      0x158 /tmp/cc0IPsVg.ltrans8.ltrans.o
                0x0000000008008250                params_set.part.0.lto_priv.111
 *fill*         0x00000000080083a8        0x8 
 .text.param_save_flash
                0x00000000080083b0      0x160 /tmp/cc0IPsVg.ltrans8.ltrans.o
                0x00000000080083b0                param_save_flash
 .text.Temperature_thread.lto_priv.114
                0x0000000008008510      0x154 /tmp/cc0IPsVg.ltrans8.ltrans.o
                0x0000000008008510                Temperature_thread.lto_priv.114
 *fill*         0x0000000008008664        0xc 
 .text.feeder_control.lto_priv.89
                0x0000000008008670      0x5d4 /tmp/cc0IPsVg.ltrans8.ltrans.o
                0x0000000008008670                feeder_control.lto_priv.89
 *fill*         0x0000000008008c44        0xc 
 .text.Vector9C
                0x0000000008008c50       0x7c /tmp/cc0IPsVg.ltrans9.ltrans.o
                0x0000000008008c50                Vector9C
 *fill*         0x0000000008008ccc        0x4 
 .text.Vector68
                0x0000000008008cd0       0x38 /tmp/cc0IPsVg.ltrans9.ltrans.o
                0x0000000008008cd0                Vector68
 *fill*         0x0000000008008d08        0x8 
 .text.Vector64
                0x0000000008008d10       0x38 /tmp/cc0IPsVg.ltrans9.ltrans.o
                0x0000000008008d10                Vector64
 *fill*         0x0000000008008d48        0x8 
 .text.Vector60
                0x0000000008008d50       0x38 /tmp/cc0IPsVg.ltrans9.ltrans.o
                0x0000000008008d50                Vector60
 *fill*         0x0000000008008d88        0x8 
 .text.Vector5C
                0x0000000008008d90       0x38 /tmp/cc0IPsVg.ltrans9.ltrans.o
                0x0000000008008d90                Vector5C
 *fill*         0x0000000008008dc8        0x8 
 .text.Vector58
                0x0000000008008dd0       0x38 /tmp/cc0IPsVg.ltrans9.ltrans.o
                0x0000000008008dd0                Vector58
 *fill*         0x0000000008008e08        0x8 
 .text.Vector158
                0x0000000008008e10       0x38 /tmp/cc0IPsVg.ltrans9.ltrans.o
                0x0000000008008e10                Vector158
 *fill*         0x0000000008008e48        0x8 
 .text.Vector154
                0x0000000008008e50       0x38 /tmp/cc0IPsVg.ltrans9.ltrans.o
                0x0000000008008e50                Vector154
 *fill*         0x0000000008008e88        0x8 
 .text.Vector150
                0x0000000008008e90       0x38 /tmp/cc0IPsVg.ltrans9.ltrans.o
                0x0000000008008e90                Vector150
 *fill*         0x0000000008008ec8        0x8 
 .text.Vector130
                0x0000000008008ed0       0x34 /tmp/cc0IPsVg.ltrans9.ltrans.o
                0x0000000008008ed0                Vector130
 *fill*         0x0000000008008f04        0xc 
 .text.Vector12C
                0x0000000008008f10       0x38 /tmp/cc0IPsVg.ltrans9.ltrans.o
                0x0000000008008f10                Vector12C
 *fill*         0x0000000008008f48        0x8 
 .text.Vector128
                0x0000000008008f50       0x38 /tmp/cc0IPsVg.ltrans9.ltrans.o
                0x0000000008008f50                Vector128
 *fill*         0x0000000008008f88        0x8 
 .text.Vector124
                0x0000000008008f90       0x38 /tmp/cc0IPsVg.ltrans9.ltrans.o
                0x0000000008008f90                Vector124
 *fill*         0x0000000008008fc8        0x8 
 .text.Vector120
                0x0000000008008fd0       0x34 /tmp/cc0IPsVg.ltrans9.ltrans.o
                0x0000000008008fd0                Vector120
 *fill*         0x0000000008009004        0xc 
 .text.VectorFC
                0x0000000008009010       0x38 /tmp/cc0IPsVg.ltrans9.ltrans.o
                0x0000000008009010                VectorFC
 *fill*         0x0000000008009048        0x8 
 .text.Vector84
                0x0000000008009050       0x38 /tmp/cc0IPsVg.ltrans9.ltrans.o
                0x0000000008009050                Vector84
 *fill*         0x0000000008009088        0x8 
 .text.Vector80
                0x0000000008009090       0x38 /tmp/cc0IPsVg.ltrans9.ltrans.o
                0x0000000008009090                Vector80
 *fill*         0x00000000080090c8        0x8 
 .text.Vector7C
                0x00000000080090d0       0x34 /tmp/cc0IPsVg.ltrans9.ltrans.o
                0x00000000080090d0                Vector7C
 *fill*         0x0000000008009104        0xc 
 .text.Vector78
                0x0000000008009110       0x38 /tmp/cc0IPsVg.ltrans9.ltrans.o
                0x0000000008009110                Vector78
 *fill*         0x0000000008009148        0x8 
 .text.Vector74
                0x0000000008009150       0x38 /tmp/cc0IPsVg.ltrans9.ltrans.o
                0x0000000008009150                Vector74
 *fill*         0x0000000008009188        0x8 
 .text.Vector70
                0x0000000008009190       0x38 /tmp/cc0IPsVg.ltrans9.ltrans.o
                0x0000000008009190                Vector70
 *fill*         0x00000000080091c8        0x8 
 .text.Vector6C
                0x00000000080091d0       0x34 /tmp/cc0IPsVg.ltrans9.ltrans.o
                0x00000000080091d0                Vector6C
 *fill*         0x0000000008009204        0xc 
 .text.can_lld_sce_handler
                0x0000000008009210       0x74 /tmp/cc0IPsVg.ltrans9.ltrans.o
 *fill*         0x0000000008009284        0xc 
 .text.Vector148
                0x0000000008009290       0x20 /tmp/cc0IPsVg.ltrans9.ltrans.o
                0x0000000008009290                Vector148
 .text.Vector98
                0x00000000080092b0       0x20 /tmp/cc0IPsVg.ltrans9.ltrans.o
                0x00000000080092b0                Vector98
 .text.can_lld_rx1_handler
                0x00000000080092d0       0x78 /tmp/cc0IPsVg.ltrans9.ltrans.o
 *fill*         0x0000000008009348        0x8 
 .text.Vector144
                0x0000000008009350       0x20 /tmp/cc0IPsVg.ltrans9.ltrans.o
                0x0000000008009350                Vector144
 .text.Vector94
                0x0000000008009370       0x20 /tmp/cc0IPsVg.ltrans9.ltrans.o
                0x0000000008009370                Vector94
 .text.can_lld_rx0_handler
                0x0000000008009390       0x78 /tmp/cc0IPsVg.ltrans9.ltrans.o
 *fill*         0x0000000008009408        0x8 
 .text.Vector140
                0x0000000008009410       0x20 /tmp/cc0IPsVg.ltrans9.ltrans.o
                0x0000000008009410                Vector140
 .text.Vector90
                0x0000000008009430       0x20 /tmp/cc0IPsVg.ltrans9.ltrans.o
                0x0000000008009430                Vector90
 .text.can_lld_tx_handler
                0x0000000008009450       0x74 /tmp/cc0IPsVg.ltrans9.ltrans.o
 *fill*         0x00000000080094c4        0xc 
 .text.Vector13C
                0x00000000080094d0       0x20 /tmp/cc0IPsVg.ltrans9.ltrans.o
                0x00000000080094d0                Vector13C
 .text.Vector8C
                0x00000000080094f0       0x20 /tmp/cc0IPsVg.ltrans9.ltrans.o
                0x00000000080094f0                Vector8C
 .text.VectorB0
                0x0000000008009510       0xf4 /tmp/cc0IPsVg.ltrans9.ltrans.o
                0x0000000008009510                VectorB0
 *fill*         0x0000000008009604        0xc 
 .text._usb_ep0out
                0x0000000008009610       0xa8 /tmp/cc0IPsVg.ltrans9.ltrans.o
                0x0000000008009610                _usb_ep0out
 *fill*         0x00000000080096b8        0x8 
 .text._usb_ep0in
                0x00000000080096c0       0xf0 /tmp/cc0IPsVg.ltrans9.ltrans.o
                0x00000000080096c0                _usb_ep0in
 .text.dmaStreamAllocate
                0x00000000080097b0       0xd0 /tmp/cc0IPsVg.ltrans9.ltrans.o
                0x00000000080097b0                dmaStreamAllocate
 .text.rxend.lto_priv.152
                0x0000000008009880       0x3c /tmp/cc0IPsVg.ltrans10.ltrans.o
                0x0000000008009880                rxend.lto_priv.152
 *fill*         0x00000000080098bc        0x4 
 .text.cmd_temp
                0x00000000080098c0       0x40 /tmp/cc0IPsVg.ltrans10.ltrans.o
                0x00000000080098c0                cmd_temp
 .text.RC_reset.lto_priv.113
                0x0000000008009900       0x30 /tmp/cc0IPsVg.ltrans10.ltrans.o
                0x0000000008009900                RC_reset.lto_priv.113
 .text.lpfilter_apply
                0x0000000008009930       0x68 /tmp/cc0IPsVg.ltrans10.ltrans.o
                0x0000000008009930                lpfilter_apply
 *fill*         0x0000000008009998        0x8 
 .text.imuGetDataRaw
                0x00000000080099a0      0x190 /tmp/cc0IPsVg.ltrans10.ltrans.o
                0x00000000080099a0                imuGetDataRaw
 .text.imuGetData
                0x0000000008009b30      0x20c /tmp/cc0IPsVg.ltrans10.ltrans.o
                0x0000000008009b30                imuGetData
 *fill*         0x0000000008009d3c        0x4 
 .text.can_rx.lto_priv.95
                0x0000000008009d40      0x534 /tmp/cc0IPsVg.ltrans10.ltrans.o
                0x0000000008009d40                can_rx.lto_priv.95
 *fill*         0x000000000800a274        0xc 
 .text.gimbal_encoderUpdate.lto_priv.112
                0x000000000800a280      0x1d8 /tmp/cc0IPsVg.ltrans11.ltrans.o
                0x000000000800a280                gimbal_encoderUpdate.lto_priv.112
 *fill*         0x000000000800a458        0x8 
 .text.gimbal_kill
                0x000000000800a460       0x24 /tmp/cc0IPsVg.ltrans11.ltrans.o
                0x000000000800a460                gimbal_kill
 *fill*         0x000000000800a484        0xc 
 .text.uart_dbus_thread.lto_priv.94
                0x000000000800a490      0x6bc /tmp/cc0IPsVg.ltrans11.ltrans.o
                0x000000000800a490                uart_dbus_thread.lto_priv.94
 *fill*         0x000000000800ab4c        0x4 
 .text.cmd_param_scale
                0x000000000800ab50       0x40 /tmp/cc0IPsVg.ltrans12.ltrans.o
                0x000000000800ab50                cmd_param_scale
 .text.cmd_param_update
                0x000000000800ab90       0x1c /tmp/cc0IPsVg.ltrans12.ltrans.o
                0x000000000800ab90                cmd_param_update
 *fill*         0x000000000800abac        0x4 
 .text.sendLine
                0x000000000800abb0       0x4c /tmp/cc0IPsVg.ltrans12.ltrans.o
 *fill*         0x000000000800abfc        0x4 
 .text.cmd_param_tx
                0x000000000800ac00      0x1a4 /tmp/cc0IPsVg.ltrans12.ltrans.o
                0x000000000800ac00                cmd_param_tx
 *fill*         0x000000000800ada4        0xc 
 .text.cmd_param_rx
                0x000000000800adb0       0xbc /tmp/cc0IPsVg.ltrans12.ltrans.o
                0x000000000800adb0                cmd_param_rx
 *fill*         0x000000000800ae6c        0x4 
 .text.gimbal_init_thread.lto_priv.92
                0x000000000800ae70      0x388 /tmp/cc0IPsVg.ltrans12.ltrans.o
                0x000000000800ae70                gimbal_init_thread.lto_priv.92
 *fill*         0x000000000800b1f8        0x8 
 .text.gimbal_thread.lto_priv.93
                0x000000000800b200      0x758 /tmp/cc0IPsVg.ltrans12.ltrans.o
                0x000000000800b200                gimbal_thread.lto_priv.93
 *fill*         0x000000000800b958        0x8 
 .text.sduRequestsHook
                0x000000000800b960       0x40 /tmp/cc0IPsVg.ltrans13.ltrans.o
                0x000000000800b960                sduRequestsHook
 .text.sdcGetInfo
                0x000000000800b9a0       0x30 /tmp/cc0IPsVg.ltrans13.ltrans.o
                0x000000000800b9a0                sdcGetInfo
 .text.sdcSync  0x000000000800b9d0       0x20 /tmp/cc0IPsVg.ltrans13.ltrans.o
                0x000000000800b9d0                sdcSync
 .text.sduDataTransmitted
                0x000000000800b9f0       0xf0 /tmp/cc0IPsVg.ltrans13.ltrans.o
                0x000000000800b9f0                sduDataTransmitted
 .text.obnotify.lto_priv.98
                0x000000000800bae0       0x48 /tmp/cc0IPsVg.ltrans13.ltrans.o
                0x000000000800bae0                obnotify.lto_priv.98
 *fill*         0x000000000800bb28        0x8 
 .text.readt.lto_priv.110
                0x000000000800bb30       0x20 /tmp/cc0IPsVg.ltrans13.ltrans.o
                0x000000000800bb30                readt.lto_priv.110
 .text.read.lto_priv.104
                0x000000000800bb50       0x1c /tmp/cc0IPsVg.ltrans13.ltrans.o
                0x000000000800bb50                read.lto_priv.104
 *fill*         0x000000000800bb6c        0x4 
 .text.writet.lto_priv.109
                0x000000000800bb70       0x20 /tmp/cc0IPsVg.ltrans13.ltrans.o
                0x000000000800bb70                writet.lto_priv.109
 .text.write.lto_priv.103
                0x000000000800bb90       0x1c /tmp/cc0IPsVg.ltrans13.ltrans.o
                0x000000000800bb90                write.lto_priv.103
 *fill*         0x000000000800bbac        0x4 
 .text.gett.lto_priv.108
                0x000000000800bbb0       0x18 /tmp/cc0IPsVg.ltrans13.ltrans.o
                0x000000000800bbb0                gett.lto_priv.108
 *fill*         0x000000000800bbc8        0x8 
 .text.get.lto_priv.106
                0x000000000800bbd0       0x1c /tmp/cc0IPsVg.ltrans13.ltrans.o
                0x000000000800bbd0                get.lto_priv.106
 *fill*         0x000000000800bbec        0x4 
 .text.putt.lto_priv.107
                0x000000000800bbf0       0x18 /tmp/cc0IPsVg.ltrans13.ltrans.o
                0x000000000800bbf0                putt.lto_priv.107
 *fill*         0x000000000800bc08        0x8 
 .text.put.lto_priv.105
                0x000000000800bc10       0x1c /tmp/cc0IPsVg.ltrans13.ltrans.o
                0x000000000800bc10                put.lto_priv.105
 *fill*         0x000000000800bc2c        0x4 
 .text.sdcWrite
                0x000000000800bc30       0xd4 /tmp/cc0IPsVg.ltrans13.ltrans.o
                0x000000000800bc30                sdcWrite
 *fill*         0x000000000800bd04        0xc 
 .text.sdcRead  0x000000000800bd10       0xdc /tmp/cc0IPsVg.ltrans13.ltrans.o
                0x000000000800bd10                sdcRead
 *fill*         0x000000000800bdec        0x4 
 .text.sdu_start_receive.lto_priv.123
                0x000000000800bdf0       0x50 /tmp/cc0IPsVg.ltrans13.ltrans.o
                0x000000000800bdf0                sdu_start_receive.lto_priv.123
 .text.sduDataReceived
                0x000000000800be40       0xc8 /tmp/cc0IPsVg.ltrans13.ltrans.o
                0x000000000800be40                sduDataReceived
 *fill*         0x000000000800bf08        0x8 
 .text.ibnotify.lto_priv.97
                0x000000000800bf10        0x8 /tmp/cc0IPsVg.ltrans13.ltrans.o
                0x000000000800bf10                ibnotify.lto_priv.97
 *fill*         0x000000000800bf18        0x8 
 .text.sdcDisconnect
                0x000000000800bf20       0xb4 /tmp/cc0IPsVg.ltrans13.ltrans.o
                0x000000000800bf20                sdcDisconnect
 *fill*         0x000000000800bfd4        0xc 
 .text.chSchWakeupS.constprop.76
                0x000000000800bfe0       0x90 /tmp/cc0IPsVg.ltrans14.ltrans.o
                0x000000000800bfe0                chSchWakeupS.constprop.76
 .text.chThdResumeS.constprop.73
                0x000000000800c070       0x2c /tmp/cc0IPsVg.ltrans14.ltrans.o
                0x000000000800c070                chThdResumeS.constprop.73
 *fill*         0x000000000800c09c        0x4 
 .text.can_lld_set_filters.constprop.66
                0x000000000800c0a0      0x114 /tmp/cc0IPsVg.ltrans14.ltrans.o
                0x000000000800c0a0                can_lld_set_filters.constprop.66
 *fill*         0x000000000800c1b4        0xc 
 .text._strtok.constprop.21
                0x000000000800c1c0       0x40 /tmp/cc0IPsVg.ltrans14.ltrans.o
                0x000000000800c1c0                _strtok.constprop.21
 .text.lpfilter_init.constprop.11
                0x000000000800c200       0x7c /tmp/cc0IPsVg.ltrans14.ltrans.o
                0x000000000800c200                lpfilter_init.constprop.11
 *fill*         0x000000000800c27c        0x4 
 .text.pwmEnableChannel.constprop.46
                0x000000000800c280       0x7c /tmp/cc0IPsVg.ltrans14.ltrans.o
                0x000000000800c280                pwmEnableChannel.constprop.46
 *fill*         0x000000000800c2fc        0x4 
 .text.can_motorSetCurrent.constprop.4
                0x000000000800c300      0x164 /tmp/cc0IPsVg.ltrans14.ltrans.o
                0x000000000800c300                can_motorSetCurrent.constprop.4
 *fill*         0x000000000800c464        0xc 
 .text.__fpclassifyf
                0x000000000800c470       0x38 /usr/lib/gcc/arm-none-eabi/4.9.3/../../../arm-none-eabi/lib/armv7e-m/fpu/libm.a(lib_a-sf_fpclassify.o)
                0x000000000800c470                __fpclassifyf
 *fill*         0x000000000800c4a8        0x8 
 .text.cosf     0x000000000800c4b0       0x78 /usr/lib/gcc/arm-none-eabi/4.9.3/../../../arm-none-eabi/lib/armv7e-m/fpu/libm.a(lib_a-sf_cos.o)
                0x000000000800c4b0                cosf
 *fill*         0x000000000800c528        0x8 
 .text.sinf     0x000000000800c530       0x7c /usr/lib/gcc/arm-none-eabi/4.9.3/../../../arm-none-eabi/lib/armv7e-m/fpu/libm.a(lib_a-sf_sin.o)
                0x000000000800c530                sinf
 *fill*         0x000000000800c5ac        0x4 
 .text.tanf     0x000000000800c5b0       0x5c /usr/lib/gcc/arm-none-eabi/4.9.3/../../../arm-none-eabi/lib/armv7e-m/fpu/libm.a(lib_a-sf_tan.o)
                0x000000000800c5b0                tanf
 *fill*         0x000000000800c60c        0x4 
 .text.asinf    0x000000000800c610       0xbc /usr/lib/gcc/arm-none-eabi/4.9.3/../../../arm-none-eabi/lib/armv7e-m/fpu/libm.a(lib_a-wf_asin.o)
                0x000000000800c610                asinf
 *fill*         0x000000000800c6cc        0x4 
 .text.atan2f   0x000000000800c6d0        0x4 /usr/lib/gcc/arm-none-eabi/4.9.3/../../../arm-none-eabi/lib/armv7e-m/fpu/libm.a(lib_a-wf_atan2.o)
                0x000000000800c6d0                atan2f
 *fill*         0x000000000800c6d4        0xc 
 .text.sqrtf    0x000000000800c6e0       0xb8 /usr/lib/gcc/arm-none-eabi/4.9.3/../../../arm-none-eabi/lib/armv7e-m/fpu/libm.a(lib_a-wf_sqrt.o)
                0x000000000800c6e0                sqrtf
 *fill*         0x000000000800c798        0x8 
 .text.__ieee754_asinf
                0x000000000800c7a0      0x1f8 /usr/lib/gcc/arm-none-eabi/4.9.3/../../../arm-none-eabi/lib/armv7e-m/fpu/libm.a(lib_a-ef_asin.o)
                0x000000000800c7a0                __ieee754_asinf
 *fill*         0x000000000800c998        0x8 
 .text.__ieee754_atan2f
                0x000000000800c9a0      0x16c /usr/lib/gcc/arm-none-eabi/4.9.3/../../../arm-none-eabi/lib/armv7e-m/fpu/libm.a(lib_a-ef_atan2.o)
                0x000000000800c9a0                __ieee754_atan2f
 *fill*         0x000000000800cb0c        0x4 
 .text.__ieee754_rem_pio2f
                0x000000000800cb10      0x290 /usr/lib/gcc/arm-none-eabi/4.9.3/../../../arm-none-eabi/lib/armv7e-m/fpu/libm.a(lib_a-ef_rem_pio2.o)
                0x000000000800cb10                __ieee754_rem_pio2f
 .text.__ieee754_sqrtf
                0x000000000800cda0       0xa4 /usr/lib/gcc/arm-none-eabi/4.9.3/../../../arm-none-eabi/lib/armv7e-m/fpu/libm.a(lib_a-ef_sqrt.o)
                0x000000000800cda0                __ieee754_sqrtf
 *fill*         0x000000000800ce44        0xc 
 .text.__kernel_cosf
                0x000000000800ce50      0x104 /usr/lib/gcc/arm-none-eabi/4.9.3/../../../arm-none-eabi/lib/armv7e-m/fpu/libm.a(lib_a-kf_cos.o)
                0x000000000800ce50                __kernel_cosf
 *fill*         0x000000000800cf54        0xc 
 .text.__kernel_rem_pio2f
                0x000000000800cf60      0x5e4 /usr/lib/gcc/arm-none-eabi/4.9.3/../../../arm-none-eabi/lib/armv7e-m/fpu/libm.a(lib_a-kf_rem_pio2.o)
                0x000000000800cf60                __kernel_rem_pio2f
 *fill*         0x000000000800d544        0xc 
 .text.__kernel_sinf
                0x000000000800d550       0x90 /usr/lib/gcc/arm-none-eabi/4.9.3/../../../arm-none-eabi/lib/armv7e-m/fpu/libm.a(lib_a-kf_sin.o)
                0x000000000800d550                __kernel_sinf
 .text.__kernel_tanf
                0x000000000800d5e0      0x1d0 /usr/lib/gcc/arm-none-eabi/4.9.3/../../../arm-none-eabi/lib/armv7e-m/fpu/libm.a(lib_a-kf_tan.o)
                0x000000000800d5e0                __kernel_tanf
 .text.matherr  0x000000000800d7b0        0x4 /usr/lib/gcc/arm-none-eabi/4.9.3/../../../arm-none-eabi/lib/armv7e-m/fpu/libm.a(lib_a-s_matherr.o)
                0x000000000800d7b0                matherr
 *fill*         0x000000000800d7b4        0xc 
 .text.nan      0x000000000800d7c0       0x10 /usr/lib/gcc/arm-none-eabi/4.9.3/../../../arm-none-eabi/lib/armv7e-m/fpu/libm.a(lib_a-s_nan.o)
                0x000000000800d7c0                nan
 .text.atanf    0x000000000800d7d0      0x1b8 /usr/lib/gcc/arm-none-eabi/4.9.3/../../../arm-none-eabi/lib/armv7e-m/fpu/libm.a(lib_a-sf_atan.o)
                0x000000000800d7d0                atanf
 *fill*         0x000000000800d988        0x8 
 .text.fabsf    0x000000000800d990       0x10 /usr/lib/gcc/arm-none-eabi/4.9.3/../../../arm-none-eabi/lib/armv7e-m/fpu/libm.a(lib_a-sf_fabs.o)
                0x000000000800d990                fabsf
 .text.floorf   0x000000000800d9a0       0x90 /usr/lib/gcc/arm-none-eabi/4.9.3/../../../arm-none-eabi/lib/armv7e-m/fpu/libm.a(lib_a-sf_floor.o)
                0x000000000800d9a0                floorf
 .text.scalbnf  0x000000000800da30       0xd0 /usr/lib/gcc/arm-none-eabi/4.9.3/../../../arm-none-eabi/lib/armv7e-m/fpu/libm.a(lib_a-sf_scalbn.o)
                0x000000000800da30                scalbnf
 .text.copysignf
                0x000000000800db00       0x18 /usr/lib/gcc/arm-none-eabi/4.9.3/../../../arm-none-eabi/lib/armv7e-m/fpu/libm.a(lib_a-sf_copysign.o)
                0x000000000800db00                copysignf
 *fill*         0x000000000800db18        0x8 
 .text.__errno  0x000000000800db20        0xc /usr/lib/gcc/arm-none-eabi/4.9.3/../../../arm-none-eabi/lib/armv7e-m/fpu/libg.a(lib_a-errno.o)
                0x000000000800db20                __errno
 *fill*         0x000000000800db2c        0x4 
 .text.memset   0x000000000800db30       0x9c /usr/lib/gcc/arm-none-eabi/4.9.3/../../../arm-none-eabi/lib/armv7e-m/fpu/libg.a(lib_a-memset.o)
                0x000000000800db30                memset
 *fill*         0x000000000800dbcc        0x4 
 .text.strlen   0x000000000800dbd0       0x5c /usr/lib/gcc/arm-none-eabi/4.9.3/../../../arm-none-eabi/lib/armv7e-m/fpu/libg.a(lib_a-strlen.o)
                0x000000000800dbd0                strlen
 *fill*         0x000000000800dc2c        0x4 
 .text.strpbrk  0x000000000800dc30       0x48 /usr/lib/gcc/arm-none-eabi/4.9.3/../../../arm-none-eabi/lib/armv7e-m/fpu/libg.a(lib_a-strpbrk.o)
                0x000000000800dc30                strpbrk
 *fill*         0x000000000800dc78        0x8 
 .text.strspn   0x000000000800dc80       0x34 /usr/lib/gcc/arm-none-eabi/4.9.3/../../../arm-none-eabi/lib/armv7e-m/fpu/libg.a(lib_a-strspn.o)
                0x000000000800dc80                strspn
 *(.rodata)
 *(.rodata.*)
 *fill*         0x000000000800dcb4        0xc 
 .rodata.vmt    0x000000000800dcc0       0x20 /tmp/cc0IPsVg.ltrans0.ltrans.o
 .rodata.__func__.8460
                0x000000000800dce0        0x9 /tmp/cc0IPsVg.ltrans0.ltrans.o
 *fill*         0x000000000800dce9        0x7 
 .rodata._stm32_dma_streams
                0x000000000800dcf0       0xc0 /tmp/cc0IPsVg.ltrans0.ltrans.o
 .rodata.shell_cfg1
                0x000000000800ddb0        0x8 /tmp/cc0IPsVg.ltrans0.ltrans.o
 *fill*         0x000000000800ddb8        0x8 
 .rodata.__func__.8410
                0x000000000800ddc0        0x9 /tmp/cc0IPsVg.ltrans0.ltrans.o
 *fill*         0x000000000800ddc9        0x7 
 .rodata.__func__.8764
                0x000000000800ddd0        0x9 /tmp/cc0IPsVg.ltrans0.ltrans.o
 *fill*         0x000000000800ddd9        0x7 
 .rodata._yaw_atti_name
                0x000000000800dde0       0x10 /tmp/cc0IPsVg.ltrans0.ltrans.o
 .rodata.axis_ff_name
                0x000000000800ddf0        0xf /tmp/cc0IPsVg.ltrans0.ltrans.o
 *fill*         0x000000000800ddff        0x1 
 .rodata.FEEDER_VEL
                0x000000000800de00        0x4 /tmp/cc0IPsVg.ltrans0.ltrans.o
 *fill*         0x000000000800de04        0xc 
 .rodata.limit_subname
                0x000000000800de10       0x24 /tmp/cc0IPsVg.ltrans0.ltrans.o
 *fill*         0x000000000800de34        0xc 
 .rodata.commands
                0x000000000800de40       0x48 /tmp/cc0IPsVg.ltrans0.ltrans.o
 *fill*         0x000000000800de88        0x8 
 .rodata.__func__.6506
                0x000000000800de90        0xc /tmp/cc0IPsVg.ltrans0.ltrans.o
 *fill*         0x000000000800de9c        0x4 
 .rodata.subname_axis
                0x000000000800dea0        0xa /tmp/cc0IPsVg.ltrans0.ltrans.o
 *fill*         0x000000000800deaa        0x6 
 .rodata.__func__.6336
                0x000000000800deb0        0xc /tmp/cc0IPsVg.ltrans0.ltrans.o
 *fill*         0x000000000800debc        0x4 
 .rodata._pitch_vel_name
                0x000000000800dec0       0x11 /tmp/cc0IPsVg.ltrans0.ltrans.o
 *fill*         0x000000000800ded1        0xf 
 .rodata.str1.4
                0x000000000800dee0       0x4f /tmp/cc0IPsVg.ltrans0.ltrans.o
 *fill*         0x000000000800df2f        0x1 
 .rodata.usbcfg
                0x000000000800df30       0x10 /tmp/cc0IPsVg.ltrans0.ltrans.o
 .rodata.__func__.8519
                0x000000000800df40       0x13 /tmp/cc0IPsVg.ltrans0.ltrans.o
 *fill*         0x000000000800df53        0xd 
 .rodata.subname_PI
                0x000000000800df60        0x6 /tmp/cc0IPsVg.ltrans0.ltrans.o
 *fill*         0x000000000800df66        0xa 
 .rodata.subname_feeder_PID
                0x000000000800df70        0x9 /tmp/cc0IPsVg.ltrans0.ltrans.o
 *fill*         0x000000000800df79        0x7 
 .rodata.__func__.6022.lto_priv.87
                0x000000000800df80        0xc /tmp/cc0IPsVg.ltrans0.ltrans.o
 *fill*         0x000000000800df8c        0x4 
 .rodata.serusbcfg
                0x000000000800df90        0x8 /tmp/cc0IPsVg.ltrans0.ltrans.o
 *fill*         0x000000000800df98        0x8 
 .rodata.__func__.6022.lto_priv.88
                0x000000000800dfa0        0xc /tmp/cc0IPsVg.ltrans0.ltrans.o
 *fill*         0x000000000800dfac        0x4 
 .rodata.hsparams
                0x000000000800dfb0        0xc /tmp/cc0IPsVg.ltrans0.ltrans.o
 *fill*         0x000000000800dfbc        0x4 
 .rodata._yaw_vel_name
                0x000000000800dfc0        0xf /tmp/cc0IPsVg.ltrans0.ltrans.o
 *fill*         0x000000000800dfcf        0x1 
 .rodata.sdc_vmt
                0x000000000800dfd0       0x20 /tmp/cc0IPsVg.ltrans0.ltrans.o
 .rodata.limit_name
                0x000000000800dff0       0x12 /tmp/cc0IPsVg.ltrans0.ltrans.o
 *fill*         0x000000000800e002        0xe 
 .rodata.fsparams
                0x000000000800e010        0xc /tmp/cc0IPsVg.ltrans0.ltrans.o
 *fill*         0x000000000800e01c        0x4 
 .rodata._ZL6wdgcfg
                0x000000000800e020        0x8 /tmp/cc0IPsVg.ltrans0.ltrans.o
 *fill*         0x000000000800e028        0x8 
 .rodata.ff_int_name
                0x000000000800e030        0xe /tmp/cc0IPsVg.ltrans0.ltrans.o
 *fill*         0x000000000800e03e        0x2 
 .rodata.accl_name
                0x000000000800e040        0xf /tmp/cc0IPsVg.ltrans0.ltrans.o
 *fill*         0x000000000800e04f        0x1 
 .rodata._pitch_atti_name
                0x000000000800e050       0x12 /tmp/cc0IPsVg.ltrans0.ltrans.o
 *fill*         0x000000000800e062        0xe 
 .rodata.yaw_pos_name
                0x000000000800e070        0xf /tmp/cc0IPsVg.ltrans0.ltrans.o
 *fill*         0x000000000800e07f        0x1 
 .rodata.init_pos_name
                0x000000000800e080       0x10 /tmp/cc0IPsVg.ltrans0.ltrans.o
 .rodata.subname_accl
                0x000000000800e090       0x24 /tmp/cc0IPsVg.ltrans0.ltrans.o
 *fill*         0x000000000800e0b4        0xc 
 .rodata.__func__.8402
                0x000000000800e0c0        0x9 /tmp/cc0IPsVg.ltrans0.ltrans.o
 *fill*         0x000000000800e0c9        0x7 
 .rodata.subname_ff
                0x000000000800e0d0       0x2c /tmp/cc0IPsVg.ltrans0.ltrans.o
 *fill*         0x000000000800e0fc        0x4 
 .rodata.pitch_pos_name
                0x000000000800e100       0x11 /tmp/cc0IPsVg.ltrans0.ltrans.o
 *fill*         0x000000000800e111        0xf 
 .rodata.__func__.8405
                0x000000000800e120        0x9 /tmp/cc0IPsVg.ltrans0.ltrans.o
 *fill*         0x000000000800e129        0x7 
 .rodata.cancfg
                0x000000000800e130        0x8 /tmp/cc0IPsVg.ltrans0.ltrans.o
 *fill*         0x000000000800e138        0x8 
 .rodata.ch_debug
                0x000000000800e140       0x16 /tmp/cc0IPsVg.ltrans0.ltrans.o
 *fill*         0x000000000800e156        0xa 
 .rodata.FEEDER_POS
                0x000000000800e160        0x4 /tmp/cc0IPsVg.ltrans0.ltrans.o
 *fill*         0x000000000800e164        0xc 
 .rodata.subname_PID
                0x000000000800e170        0x9 /tmp/cc0IPsVg.ltrans0.ltrans.o
 *fill*         0x000000000800e179        0x7 
 .rodata.MPU6500_SPI_cfg
                0x000000000800e180        0xc /tmp/cc0IPsVg.ltrans1.ltrans.o
 *fill*         0x000000000800e18c        0x4 
 .rodata.axisName
                0x000000000800e190        0x6 /tmp/cc0IPsVg.ltrans1.ltrans.o
 *fill*         0x000000000800e196        0xa 
 .rodata.accelBiasName
                0x000000000800e1a0        0xa /tmp/cc0IPsVg.ltrans1.ltrans.o
 *fill*         0x000000000800e1aa        0x6 
 .rodata._ZZL11chSysUnlockvE8__func__
                0x000000000800e1b0        0xc /tmp/cc0IPsVg.ltrans1.ltrans.o
 *fill*         0x000000000800e1bc        0x4 
 .rodata.__func__.6022.lto_priv.171
                0x000000000800e1c0        0xc /tmp/cc0IPsVg.ltrans1.ltrans.o
                0x000000000800e1c0                __func__.6022.lto_priv.171
 *fill*         0x000000000800e1cc        0x4 
 .rodata.__func__.8405.lto_priv.115
                0x000000000800e1d0        0x9 /tmp/cc0IPsVg.ltrans1.ltrans.o
 *fill*         0x000000000800e1d9        0x7 
 .rodata.accelTNameSub1
                0x000000000800e1e0        0xc /tmp/cc0IPsVg.ltrans1.ltrans.o
 *fill*         0x000000000800e1ec        0x4 
 .rodata.accelTNameSub2
                0x000000000800e1f0        0x6 /tmp/cc0IPsVg.ltrans1.ltrans.o
 *fill*         0x000000000800e1f6        0xa 
 .rodata.str1.4
                0x000000000800e200       0x17 /tmp/cc0IPsVg.ltrans1.ltrans.o
 *fill*         0x000000000800e217        0x9 
 .rodata.accelTName1
                0x000000000800e220        0x8 /tmp/cc0IPsVg.ltrans1.ltrans.o
 *fill*         0x000000000800e228        0x8 
 .rodata.accelTName2
                0x000000000800e230        0x8 /tmp/cc0IPsVg.ltrans1.ltrans.o
 *fill*         0x000000000800e238        0x8 
 .rodata.__func__.8425
                0x000000000800e240        0xe /tmp/cc0IPsVg.ltrans1.ltrans.o
 *fill*         0x000000000800e24e        0x2 
 .rodata.__func__.8405.lto_priv.116
                0x000000000800e250        0x9 /tmp/cc0IPsVg.ltrans1.ltrans.o
 *fill*         0x000000000800e259        0x7 
 .rodata.__func__.8420
                0x000000000800e260        0xe /tmp/cc0IPsVg.ltrans1.ltrans.o
 *fill*         0x000000000800e26e        0x2 
 .rodata.gyroBiasName
                0x000000000800e270        0x9 /tmp/cc0IPsVg.ltrans1.ltrans.o
 *fill*         0x000000000800e279        0x7 
 .rodata.__func__.6196
                0x000000000800e280        0xc /tmp/cc0IPsVg.ltrans2.ltrans.o
 *fill*         0x000000000800e28c        0x4 
 .rodata.__func__.6022.lto_priv.180
                0x000000000800e290        0xc /tmp/cc0IPsVg.ltrans2.ltrans.o
 *fill*         0x000000000800e29c        0x4 
 .rodata.__func__.6725
                0x000000000800e2a0        0xc /tmp/cc0IPsVg.ltrans2.ltrans.o
 *fill*         0x000000000800e2ac        0x4 
 .rodata.__func__.6803
                0x000000000800e2b0        0xd /tmp/cc0IPsVg.ltrans2.ltrans.o
 *fill*         0x000000000800e2bd        0x3 
 .rodata.__func__.6791
                0x000000000800e2c0        0xe /tmp/cc0IPsVg.ltrans2.ltrans.o
 *fill*         0x000000000800e2ce        0x2 
 .rodata.__func__.6728
                0x000000000800e2d0        0xb /tmp/cc0IPsVg.ltrans2.ltrans.o
 *fill*         0x000000000800e2db        0x5 
 .rodata.str1.4
                0x000000000800e2e0       0x4d /tmp/cc0IPsVg.ltrans2.ltrans.o
 *fill*         0x000000000800e32d        0x3 
 .rodata.__func__.8401
                0x000000000800e330        0xd /tmp/cc0IPsVg.ltrans2.ltrans.o
 *fill*         0x000000000800e33d        0x3 
 .rodata.__func__.6737
                0x000000000800e340        0xd /tmp/cc0IPsVg.ltrans2.ltrans.o
 *fill*         0x000000000800e34d        0x3 
 .rodata.ram_areas
                0x000000000800e350       0x80 /tmp/cc0IPsVg.ltrans2.ltrans.o
 .rodata.__func__.8742
                0x000000000800e3d0       0x19 /tmp/cc0IPsVg.ltrans2.ltrans.o
 *fill*         0x000000000800e3e9        0x7 
 .rodata.__func__.6745
                0x000000000800e3f0       0x15 /tmp/cc0IPsVg.ltrans2.ltrans.o
 *fill*         0x000000000800e405        0xb 
 .rodata.__func__.8408
                0x000000000800e410        0xb /tmp/cc0IPsVg.ltrans2.ltrans.o
 *fill*         0x000000000800e41b        0x5 
 .rodata.__func__.6781
                0x000000000800e420        0xb /tmp/cc0IPsVg.ltrans2.ltrans.o
 *fill*         0x000000000800e42b        0x5 
 .rodata.__func__.8749
                0x000000000800e430       0x17 /tmp/cc0IPsVg.ltrans2.ltrans.o
 *fill*         0x000000000800e447        0x9 
 .rodata.__func__.6762
                0x000000000800e450        0xd /tmp/cc0IPsVg.ltrans2.ltrans.o
 *fill*         0x000000000800e45d        0x3 
 .rodata.__func__.8459
                0x000000000800e460        0x8 /tmp/cc0IPsVg.ltrans3.ltrans.o
 *fill*         0x000000000800e468        0x8 
 .rodata.__func__.8417
                0x000000000800e470        0xc /tmp/cc0IPsVg.ltrans3.ltrans.o
 *fill*         0x000000000800e47c        0x4 
 .rodata.__func__.6022.lto_priv.170
                0x000000000800e480        0xc /tmp/cc0IPsVg.ltrans3.ltrans.o
 *fill*         0x000000000800e48c        0x4 
 .rodata.__func__.8781
                0x000000000800e490       0x11 /tmp/cc0IPsVg.ltrans3.ltrans.o
 *fill*         0x000000000800e4a1        0xf 
 .rodata.zero_status
                0x000000000800e4b0        0x2 /tmp/cc0IPsVg.ltrans3.ltrans.o
 *fill*         0x000000000800e4b2        0xe 
 .rodata.__func__.8786
                0x000000000800e4c0       0x15 /tmp/cc0IPsVg.ltrans3.ltrans.o
 *fill*         0x000000000800e4d5        0xb 
 .rodata.__func__.6728
                0x000000000800e4e0        0xb /tmp/cc0IPsVg.ltrans3.ltrans.o
 *fill*         0x000000000800e4eb        0x5 
 .rodata.__func__.8473
                0x000000000800e4f0        0xe /tmp/cc0IPsVg.ltrans3.ltrans.o
 *fill*         0x000000000800e4fe        0x2 
 .rodata.__func__.8797
                0x000000000800e500       0x11 /tmp/cc0IPsVg.ltrans3.ltrans.o
 *fill*         0x000000000800e511        0xf 
 .rodata.__func__.8465
                0x000000000800e520        0xb /tmp/cc0IPsVg.ltrans3.ltrans.o
 *fill*         0x000000000800e52b        0x5 
 .rodata.__func__.8413
                0x000000000800e530        0xa /tmp/cc0IPsVg.ltrans3.ltrans.o
 *fill*         0x000000000800e53a        0x6 
 .rodata.__func__.6751
                0x000000000800e540        0xc /tmp/cc0IPsVg.ltrans3.ltrans.o
 *fill*         0x000000000800e54c        0x4 
 .rodata.active_status
                0x000000000800e550        0x2 /tmp/cc0IPsVg.ltrans3.ltrans.o
 *fill*         0x000000000800e552        0xe 
 .rodata.__func__.8469
                0x000000000800e560        0xe /tmp/cc0IPsVg.ltrans3.ltrans.o
 *fill*         0x000000000800e56e        0x2 
 .rodata.halted_status
                0x000000000800e570        0x2 /tmp/cc0IPsVg.ltrans3.ltrans.o
 *fill*         0x000000000800e572        0xe 
 .rodata.__func__.8805
                0x000000000800e580       0x12 /tmp/cc0IPsVg.ltrans3.ltrans.o
 *fill*         0x000000000800e592        0xe 
 .rodata.__func__.8809
                0x000000000800e5a0       0x13 /tmp/cc0IPsVg.ltrans4.ltrans.o
 *fill*         0x000000000800e5b3        0xd 
 .rodata.__func__.8818
                0x000000000800e5c0       0x12 /tmp/cc0IPsVg.ltrans4.ltrans.o
 *fill*         0x000000000800e5d2        0xe 
 .rodata.__func__.6336.lto_priv.178
                0x000000000800e5e0        0xc /tmp/cc0IPsVg.ltrans4.ltrans.o
                0x000000000800e5e0                __func__.6336.lto_priv.178
 *fill*         0x000000000800e5ec        0x4 
 .rodata.__func__.8850
                0x000000000800e5f0        0xb /tmp/cc0IPsVg.ltrans4.ltrans.o
 *fill*         0x000000000800e5fb        0x5 
 .rodata.__func__.8404
                0x000000000800e600       0x11 /tmp/cc0IPsVg.ltrans4.ltrans.o
 *fill*         0x000000000800e611        0xf 
 .rodata.__func__.8411
                0x000000000800e620       0x14 /tmp/cc0IPsVg.ltrans4.ltrans.o
 *fill*         0x000000000800e634        0xc 
 .rodata.__func__.8800
                0x000000000800e640       0x1a /tmp/cc0IPsVg.ltrans4.ltrans.o
 *fill*         0x000000000800e65a        0x6 
 .rodata.__func__.6022.lto_priv.179
                0x000000000800e660        0xc /tmp/cc0IPsVg.ltrans5.ltrans.o
                0x000000000800e660                __func__.6022.lto_priv.179
 *fill*         0x000000000800e66c        0x4 
 .rodata.str1.4
                0x000000000800e670      0x43b /tmp/cc0IPsVg.ltrans5.ltrans.o
 *fill*         0x000000000800eaab        0x5 
 .rodata.pow10  0x000000000800eab0       0x24 /tmp/cc0IPsVg.ltrans5.ltrans.o
 *fill*         0x000000000800ead4        0xc 
 .rodata.__func__.8720
                0x000000000800eae0       0x1b /tmp/cc0IPsVg.ltrans6.ltrans.o
 *fill*         0x000000000800eafb        0x5 
 .rodata.__func__.6336
                0x000000000800eb00        0xc /tmp/cc0IPsVg.ltrans6.ltrans.o
 *fill*         0x000000000800eb0c        0x4 
 .rodata.str1.4
                0x000000000800eb10      0x206 /tmp/cc0IPsVg.ltrans6.ltrans.o
                                        0x20a (size before relaxing)
 *fill*         0x000000000800ed16        0xa 
 .rodata.local_commands
                0x000000000800ed20       0x18 /tmp/cc0IPsVg.ltrans6.ltrans.o
 *fill*         0x000000000800ed38        0x8 
 .rodata.__func__.8766
                0x000000000800ed40       0x1b /tmp/cc0IPsVg.ltrans7.ltrans.o
 *fill*         0x000000000800ed5b        0x5 
 .rodata.__func__.6336.lto_priv.163
                0x000000000800ed60        0xc /tmp/cc0IPsVg.ltrans7.ltrans.o
 *fill*         0x000000000800ed6c        0x4 
 .rodata.__func__.6336.lto_priv.164
                0x000000000800ed70        0xc /tmp/cc0IPsVg.ltrans7.ltrans.o
 *fill*         0x000000000800ed7c        0x4 
 .rodata.__func__.8760.lto_priv.167
                0x000000000800ed80        0xe /tmp/cc0IPsVg.ltrans7.ltrans.o
                0x000000000800ed80                __func__.8760.lto_priv.167
 *fill*         0x000000000800ed8e        0x2 
 .rodata.str1.4
                0x000000000800ed90        0xd /tmp/cc0IPsVg.ltrans7.ltrans.o
 *fill*         0x000000000800ed9d        0x3 
 .rodata.ep0config
                0x000000000800eda0       0x24 /tmp/cc0IPsVg.ltrans7.ltrans.o
 *fill*         0x000000000800edc4        0xc 
 .rodata.vcom_configuration_descriptor_data
                0x000000000800edd0       0x43 /tmp/cc0IPsVg.ltrans8.ltrans.o
 *fill*         0x000000000800ee13        0xd 
 .rodata.vcom_string0
                0x000000000800ee20        0x4 /tmp/cc0IPsVg.ltrans8.ltrans.o
 *fill*         0x000000000800ee24        0xc 
 .rodata.ep2config
                0x000000000800ee30       0x24 /tmp/cc0IPsVg.ltrans8.ltrans.o
 *fill*         0x000000000800ee54        0xc 
 .rodata.vcom_string1
                0x000000000800ee60       0x26 /tmp/cc0IPsVg.ltrans8.ltrans.o
 *fill*         0x000000000800ee86        0xa 
 .rodata.vcom_strings
                0x000000000800ee90       0x20 /tmp/cc0IPsVg.ltrans8.ltrans.o
 .rodata.vcom_string3
                0x000000000800eeb0        0x8 /tmp/cc0IPsVg.ltrans8.ltrans.o
 *fill*         0x000000000800eeb8        0x8 
 .rodata.vcom_string2
                0x000000000800eec0       0x38 /tmp/cc0IPsVg.ltrans8.ltrans.o
 *fill*         0x000000000800eef8        0x8 
 .rodata.__func__.6022
                0x000000000800ef00        0xc /tmp/cc0IPsVg.ltrans8.ltrans.o
 *fill*         0x000000000800ef0c        0x4 
 .rodata.vcom_device_descriptor
                0x000000000800ef10        0x8 /tmp/cc0IPsVg.ltrans8.ltrans.o
 *fill*         0x000000000800ef18        0x8 
 .rodata.__func__.8484
                0x000000000800ef20        0xc /tmp/cc0IPsVg.ltrans8.ltrans.o
 *fill*         0x000000000800ef2c        0x4 
 .rodata.vcom_device_descriptor_data
                0x000000000800ef30       0x12 /tmp/cc0IPsVg.ltrans8.ltrans.o
 *fill*         0x000000000800ef42        0xe 
 .rodata.vcom_configuration_descriptor
                0x000000000800ef50        0x8 /tmp/cc0IPsVg.ltrans8.ltrans.o
 *fill*         0x000000000800ef58        0x8 
 .rodata.str1.4
                0x000000000800ef60       0x2a /tmp/cc0IPsVg.ltrans8.ltrans.o
 *fill*         0x000000000800ef8a        0x6 
 .rodata.ep1config
                0x000000000800ef90       0x24 /tmp/cc0IPsVg.ltrans8.ltrans.o
 *fill*         0x000000000800efb4        0xc 
 .rodata.__func__.6111
                0x000000000800efc0        0xc /tmp/cc0IPsVg.ltrans9.ltrans.o
 *fill*         0x000000000800efcc        0x4 
 .rodata.__func__.8845
                0x000000000800efd0        0xb /tmp/cc0IPsVg.ltrans9.ltrans.o
 *fill*         0x000000000800efdb        0x5 
 .rodata.__func__.8859
                0x000000000800efe0        0xc /tmp/cc0IPsVg.ltrans9.ltrans.o
 *fill*         0x000000000800efec        0x4 
 .rodata.__func__.8479
                0x000000000800eff0       0x12 /tmp/cc0IPsVg.ltrans9.ltrans.o
 *fill*         0x000000000800f002        0xe 
 .rodata.__func__.6723
                0x000000000800f010       0x1b /tmp/cc0IPsVg.ltrans10.ltrans.o
 *fill*         0x000000000800f02b        0x5 
 .rodata.str1.4
                0x000000000800f030       0x31 /tmp/cc0IPsVg.ltrans10.ltrans.o
 *fill*         0x000000000800f061        0xf 
 .rodata.__func__.6022
                0x000000000800f070        0xc /tmp/cc0IPsVg.ltrans10.ltrans.o
 *fill*         0x000000000800f07c        0x4 
 .rodata.__func__.8439
                0x000000000800f080        0xb /tmp/cc0IPsVg.ltrans10.ltrans.o
 *fill*         0x000000000800f08b        0x5 
 .rodata.__func__.8486
                0x000000000800f090       0x11 /tmp/cc0IPsVg.ltrans11.ltrans.o
 *fill*         0x000000000800f0a1        0xf 
 .rodata.__func__.6797
                0x000000000800f0b0       0x15 /tmp/cc0IPsVg.ltrans11.ltrans.o
 *fill*         0x000000000800f0c5        0xb 
 .rodata.__func__.8437
                0x000000000800f0d0       0x11 /tmp/cc0IPsVg.ltrans11.ltrans.o
 *fill*         0x000000000800f0e1        0xf 
 .rodata.__func__.8448
                0x000000000800f0f0       0x10 /tmp/cc0IPsVg.ltrans11.ltrans.o
 .rodata.__func__.8454
                0x000000000800f100        0xf /tmp/cc0IPsVg.ltrans11.ltrans.o
 *fill*         0x000000000800f10f        0x1 
 .rodata.str1.4
                0x000000000800f110       0x13 /tmp/cc0IPsVg.ltrans11.ltrans.o
 *fill*         0x000000000800f123        0xd 
 .rodata.__func__.8405
                0x000000000800f130        0xa /tmp/cc0IPsVg.ltrans11.ltrans.o
 *fill*         0x000000000800f13a        0x6 
 .rodata.__func__.6022.lto_priv.148
                0x000000000800f140        0xc /tmp/cc0IPsVg.ltrans11.ltrans.o
 *fill*         0x000000000800f14c        0x4 
 .rodata.__func__.6022.lto_priv.147
                0x000000000800f150        0xc /tmp/cc0IPsVg.ltrans11.ltrans.o
 *fill*         0x000000000800f15c        0x4 
 .rodata.str1.4
                0x000000000800f160       0x3a /tmp/cc0IPsVg.ltrans12.ltrans.o
 *fill*         0x000000000800f19a        0x6 
 .rodata.__func__.6022.lto_priv.134
                0x000000000800f1a0        0xc /tmp/cc0IPsVg.ltrans12.ltrans.o
 *fill*         0x000000000800f1ac        0x4 
 .rodata.__func__.6022.lto_priv.135
                0x000000000800f1b0        0xc /tmp/cc0IPsVg.ltrans12.ltrans.o
 *fill*         0x000000000800f1bc        0x4 
 .rodata.__func__.8869
                0x000000000800f1c0        0x8 /tmp/cc0IPsVg.ltrans13.ltrans.o
 *fill*         0x000000000800f1c8        0x8 
 .rodata.__func__.8877
                0x000000000800f1d0        0x9 /tmp/cc0IPsVg.ltrans13.ltrans.o
 *fill*         0x000000000800f1d9        0x7 
 .rodata.__func__.8892
                0x000000000800f1e0        0xb /tmp/cc0IPsVg.ltrans13.ltrans.o
 *fill*         0x000000000800f1eb        0x5 
 .rodata.__func__.6336
                0x000000000800f1f0        0xc /tmp/cc0IPsVg.ltrans13.ltrans.o
 *fill*         0x000000000800f1fc        0x4 
 .rodata.__func__.8786
                0x000000000800f200       0x17 /tmp/cc0IPsVg.ltrans13.ltrans.o
 *fill*         0x000000000800f217        0x9 
 .rodata.__func__.8842
                0x000000000800f220       0x15 /tmp/cc0IPsVg.ltrans13.ltrans.o
 *fill*         0x000000000800f235        0xb 
 .rodata.__func__.8728
                0x000000000800f240       0x13 /tmp/cc0IPsVg.ltrans13.ltrans.o
 *fill*         0x000000000800f253        0xd 
 .rodata.__func__.8851
                0x000000000800f260       0x16 /tmp/cc0IPsVg.ltrans13.ltrans.o
 *fill*         0x000000000800f276        0xa 
 .rodata.__func__.8887
                0x000000000800f280        0x8 /tmp/cc0IPsVg.ltrans13.ltrans.o
 *fill*         0x000000000800f288        0x8 
 .rodata.__func__.8861
                0x000000000800f290        0xe /tmp/cc0IPsVg.ltrans13.ltrans.o
 *fill*         0x000000000800f29e        0x2 
 .rodata.__func__.6208.lto_priv.183
                0x000000000800f2a0       0x14 /tmp/cc0IPsVg.ltrans13.ltrans.o
                0x000000000800f2a0                __func__.6208.lto_priv.183
 *fill*         0x000000000800f2b4        0xc 
 .rodata.__func__.6809
                0x000000000800f2c0        0xd /tmp/cc0IPsVg.ltrans14.ltrans.o
 *fill*         0x000000000800f2cd        0x3 
 .rodata.__func__.8428
                0x000000000800f2d0        0xc /tmp/cc0IPsVg.ltrans14.ltrans.o
 *fill*         0x000000000800f2dc        0x4 
 .rodata.__func__.6022.lto_priv.80
                0x000000000800f2e0        0xc /tmp/cc0IPsVg.ltrans14.ltrans.o
                0x000000000800f2e0                __func__.6022.lto_priv.80
 *fill*         0x000000000800f2ec        0x4 
 .rodata.__func__.6022.lto_priv.81
                0x000000000800f2f0        0xc /tmp/cc0IPsVg.ltrans14.ltrans.o
                0x000000000800f2f0                __func__.6022.lto_priv.81
 *fill*         0x000000000800f2fc        0x4 
 .rodata.str1.4
                0x000000000800f300        0x3 /tmp/cc0IPsVg.ltrans14.ltrans.o
                                         0x13 (size before relaxing)
 *fill*         0x000000000800f303        0xd 
 .rodata.__func__.6022.lto_priv.82
                0x000000000800f310        0xc /tmp/cc0IPsVg.ltrans14.ltrans.o
                0x000000000800f310                __func__.6022.lto_priv.82
 *fill*         0x000000000800f31c        0x4 
 .rodata.__func__.6753
                0x000000000800f320        0xd /tmp/cc0IPsVg.ltrans14.ltrans.o
 *fill*         0x000000000800f32d        0x3 
 .rodata.__func__.8420
                0x000000000800f330       0x11 /tmp/cc0IPsVg.ltrans14.ltrans.o
 *fill*         0x000000000800f341        0xf 
 .rodata.str1.4
                0x000000000800f350        0x6 /usr/lib/gcc/arm-none-eabi/4.9.3/../../../arm-none-eabi/lib/armv7e-m/fpu/libm.a(lib_a-wf_asin.o)
                                          0xc (size before relaxing)
 *fill*         0x000000000800f356        0xa 
 .rodata.str1.4
                0x000000000800f360        0x6 /usr/lib/gcc/arm-none-eabi/4.9.3/../../../arm-none-eabi/lib/armv7e-m/fpu/libm.a(lib_a-wf_sqrt.o)
                                          0x8 (size before relaxing)
 *fill*         0x000000000800f366        0xa 
 .rodata.npio2_hw
                0x000000000800f370       0x80 /usr/lib/gcc/arm-none-eabi/4.9.3/../../../arm-none-eabi/lib/armv7e-m/fpu/libm.a(lib_a-ef_rem_pio2.o)
 .rodata.two_over_pi
                0x000000000800f3f0      0x318 /usr/lib/gcc/arm-none-eabi/4.9.3/../../../arm-none-eabi/lib/armv7e-m/fpu/libm.a(lib_a-ef_rem_pio2.o)
 *fill*         0x000000000800f708        0x8 
 .rodata.init_jk
                0x000000000800f710        0xc /usr/lib/gcc/arm-none-eabi/4.9.3/../../../arm-none-eabi/lib/armv7e-m/fpu/libm.a(lib_a-kf_rem_pio2.o)
 *fill*         0x000000000800f71c        0x4 
 .rodata.PIo2   0x000000000800f720       0x2c /usr/lib/gcc/arm-none-eabi/4.9.3/../../../arm-none-eabi/lib/armv7e-m/fpu/libm.a(lib_a-kf_rem_pio2.o)
 *fill*         0x000000000800f74c        0x4 
 .rodata.atanlo
                0x000000000800f750       0x10 /usr/lib/gcc/arm-none-eabi/4.9.3/../../../arm-none-eabi/lib/armv7e-m/fpu/libm.a(lib_a-sf_atan.o)
 .rodata.atanhi
                0x000000000800f760       0x10 /usr/lib/gcc/arm-none-eabi/4.9.3/../../../arm-none-eabi/lib/armv7e-m/fpu/libm.a(lib_a-sf_atan.o)
 .rodata.str1.4
                0x000000000800f770        0x4 /usr/lib/gcc/arm-none-eabi/4.9.3/../../../arm-none-eabi/lib/armv7e-m/fpu/libg.a(lib_a-impure.o)
 *(.glue_7t)
 .glue_7t       0x000000000800f774        0x0 linker stubs
 *(.glue_7)
 .glue_7        0x000000000800f774        0x0 linker stubs
 *(.gcc*)

.vfp11_veneer   0x000000000800f774        0x0
 .vfp11_veneer  0x000000000800f774        0x0 linker stubs

.v4_bx          0x000000000800f774        0x0
 .v4_bx         0x000000000800f774        0x0 linker stubs

.iplt           0x000000000800f774        0x0
 .iplt          0x000000000800f774        0x0 build/obj/crt0_v7m.o

.ARM.extab
 *(.ARM.extab* .gnu.linkonce.armextab.*)

.ARM.exidx      0x000000000800f774        0x8
                0x000000000800f774                __exidx_start = .
 *(.ARM.exidx* .gnu.linkonce.armexidx.*)
 .ARM.exidx.text.startup.main
                0x000000000800f774        0x8 /tmp/cc0IPsVg.ltrans0.ltrans.o
 .ARM.exidx.text._ZL15Attitude_threadPv.lto_priv.83
                0x000000000800f77c        0x0 /tmp/cc0IPsVg.ltrans1.ltrans.o
                                          0x8 (size before relaxing)
 .ARM.exidx.text.SVC_Handler
                0x000000000800f77c        0x0 /tmp/cc0IPsVg.ltrans2.ltrans.o
                                          0x8 (size before relaxing)
 .ARM.exidx.text._idle_thread.lto_priv.99
                0x000000000800f77c        0x0 /tmp/cc0IPsVg.ltrans2.ltrans.o
                                          0x8 (size before relaxing)
 .ARM.exidx.text.stSetAlarm
                0x000000000800f77c        0x0 /tmp/cc0IPsVg.ltrans2.ltrans.o
                                          0x8 (size before relaxing)
 .ARM.exidx.text._port_irq_epilogue
                0x000000000800f77c        0x0 /tmp/cc0IPsVg.ltrans2.ltrans.o
                                          0x8 (size before relaxing)
 .ARM.exidx.text._stats_increase_irq
                0x000000000800f77c        0x0 /tmp/cc0IPsVg.ltrans2.ltrans.o
                                          0x8 (size before relaxing)
 .ARM.exidx.text.chTMChainMeasurementToX
                0x000000000800f77c        0x0 /tmp/cc0IPsVg.ltrans2.ltrans.o
                                          0x8 (size before relaxing)
 .ARM.exidx.text.chTMStopMeasurementX
                0x000000000800f77c        0x0 /tmp/cc0IPsVg.ltrans2.ltrans.o
                                          0x8 (size before relaxing)
 .ARM.exidx.text._stats_stop_measure_crit_isr
                0x000000000800f77c        0x0 /tmp/cc0IPsVg.ltrans2.ltrans.o
                                          0x8 (size before relaxing)
 .ARM.exidx.text._stats_stop_measure_crit_thd
                0x000000000800f77c        0x0 /tmp/cc0IPsVg.ltrans2.ltrans.o
                                          0x8 (size before relaxing)
 .ARM.exidx.text.chTMStartMeasurementX
                0x000000000800f77c        0x0 /tmp/cc0IPsVg.ltrans2.ltrans.o
                                          0x8 (size before relaxing)
 .ARM.exidx.text._stats_start_measure_crit_isr
                0x000000000800f77c        0x0 /tmp/cc0IPsVg.ltrans2.ltrans.o
                                          0x8 (size before relaxing)
 .ARM.exidx.text._stats_start_measure_crit_thd
                0x000000000800f77c        0x0 /tmp/cc0IPsVg.ltrans2.ltrans.o
                                          0x8 (size before relaxing)
 .ARM.exidx.text._dbg_trace
                0x000000000800f77c        0x0 /tmp/cc0IPsVg.ltrans2.ltrans.o
                                          0x8 (size before relaxing)
 .ARM.exidx.text.chSchDoRescheduleAhead
                0x000000000800f77c        0x0 /tmp/cc0IPsVg.ltrans2.ltrans.o
                                          0x8 (size before relaxing)
 .ARM.exidx.text.chSchDoReschedule
                0x000000000800f77c        0x0 /tmp/cc0IPsVg.ltrans2.ltrans.o
                                          0x8 (size before relaxing)
 .ARM.exidx.text.chDbgCheckClassS
                0x000000000800f77c        0x0 /tmp/cc0IPsVg.ltrans2.ltrans.o
                                          0x8 (size before relaxing)
 .ARM.exidx.text.ibqReleaseEmptyBufferS
                0x000000000800f77c        0x0 /tmp/cc0IPsVg.ltrans2.ltrans.o
                                          0x8 (size before relaxing)
 .ARM.exidx.text.chSchGoSleepS
                0x000000000800f77c        0x0 /tmp/cc0IPsVg.ltrans2.ltrans.o
                                          0x8 (size before relaxing)
 .ARM.exidx.text.chThdSuspendS
                0x000000000800f77c        0x0 /tmp/cc0IPsVg.ltrans2.ltrans.o
                                          0x8 (size before relaxing)
 .ARM.exidx.text.chDbgCheckClassI
                0x000000000800f77c        0x0 /tmp/cc0IPsVg.ltrans2.ltrans.o
                                          0x8 (size before relaxing)
 .ARM.exidx.text.chThdCreateI
                0x000000000800f77c        0x0 /tmp/cc0IPsVg.ltrans2.ltrans.o
                                          0x8 (size before relaxing)
 .ARM.exidx.text.chSchRescheduleS
                0x000000000800f77c        0x0 /tmp/cc0IPsVg.ltrans2.ltrans.o
                                          0x8 (size before relaxing)
 .ARM.exidx.text.chSchGoSleepTimeoutS
                0x000000000800f77c        0x0 /tmp/cc0IPsVg.ltrans2.ltrans.o
                                          0x8 (size before relaxing)
 .ARM.exidx.text.chThdEnqueueTimeoutS
                0x000000000800f77c        0x0 /tmp/cc0IPsVg.ltrans2.ltrans.o
                                          0x8 (size before relaxing)
 .ARM.exidx.text.ibqGetFullBufferTimeoutS
                0x000000000800f77c        0x0 /tmp/cc0IPsVg.ltrans2.ltrans.o
                                          0x8 (size before relaxing)
 .ARM.exidx.text.chSchReadyI
                0x000000000800f77c        0x0 /tmp/cc0IPsVg.ltrans2.ltrans.o
                                          0x8 (size before relaxing)
 .ARM.exidx.text.chEvtBroadcastFlagsI
                0x000000000800f77c        0x0 /tmp/cc0IPsVg.ltrans2.ltrans.o
                                          0x8 (size before relaxing)
 .ARM.exidx.text.chThdDequeueAllI
                0x000000000800f77c        0x0 /tmp/cc0IPsVg.ltrans2.ltrans.o
                                          0x8 (size before relaxing)
 .ARM.exidx.text.chThdResumeI
                0x000000000800f77c        0x0 /tmp/cc0IPsVg.ltrans2.ltrans.o
                                          0x8 (size before relaxing)
 .ARM.exidx.text.chThdExitS
                0x000000000800f77c        0x0 /tmp/cc0IPsVg.ltrans2.ltrans.o
                                          0x8 (size before relaxing)
 .ARM.exidx.text._dbg_check_leave_isr
                0x000000000800f77c        0x0 /tmp/cc0IPsVg.ltrans2.ltrans.o
                                          0x8 (size before relaxing)
 .ARM.exidx.text._dbg_check_enter_isr
                0x000000000800f77c        0x0 /tmp/cc0IPsVg.ltrans2.ltrans.o
                                          0x8 (size before relaxing)
 .ARM.exidx.text._dbg_check_unlock_from_isr
                0x000000000800f77c        0x0 /tmp/cc0IPsVg.ltrans2.ltrans.o
                                          0x8 (size before relaxing)
 .ARM.exidx.text._dbg_check_lock_from_isr
                0x000000000800f77c        0x0 /tmp/cc0IPsVg.ltrans2.ltrans.o
                                          0x8 (size before relaxing)
 .ARM.exidx.text.wakeup
                0x000000000800f77c        0x0 /tmp/cc0IPsVg.ltrans2.ltrans.o
                                          0x8 (size before relaxing)
 .ARM.exidx.text._dbg_check_unlock
                0x000000000800f77c        0x0 /tmp/cc0IPsVg.ltrans2.ltrans.o
                                          0x8 (size before relaxing)
 .ARM.exidx.text._dbg_check_lock
                0x000000000800f77c        0x0 /tmp/cc0IPsVg.ltrans2.ltrans.o
                                          0x8 (size before relaxing)
 .ARM.exidx.text.ibqGetTimeout
                0x000000000800f77c        0x0 /tmp/cc0IPsVg.ltrans2.ltrans.o
                                          0x8 (size before relaxing)
 .ARM.exidx.text.chCoreAlloc
                0x000000000800f77c        0x0 /tmp/cc0IPsVg.ltrans2.ltrans.o
                                          0x8 (size before relaxing)
 .ARM.exidx.text.chThdExit
                0x000000000800f77c        0x0 /tmp/cc0IPsVg.ltrans2.ltrans.o
                                          0x8 (size before relaxing)
 .ARM.exidx.text.chThdSleepUntil
                0x000000000800f77c        0x0 /tmp/cc0IPsVg.ltrans2.ltrans.o
                                          0x8 (size before relaxing)
 .ARM.exidx.text.chThdSleep
                0x000000000800f77c        0x0 /tmp/cc0IPsVg.ltrans2.ltrans.o
                                          0x8 (size before relaxing)
 .ARM.exidx.text.chThdCreateStatic
                0x000000000800f77c        0x0 /tmp/cc0IPsVg.ltrans2.ltrans.o
                                          0x8 (size before relaxing)
 .ARM.exidx.text.chSysPolledDelayX
                0x000000000800f77c        0x0 /tmp/cc0IPsVg.ltrans2.ltrans.o
                                          0x8 (size before relaxing)
 .ARM.exidx.text._unhandled_exception
                0x000000000800f77c        0x0 /tmp/cc0IPsVg.ltrans2.ltrans.o
                                          0x8 (size before relaxing)
 .ARM.exidx.text.__init_ram_areas
                0x000000000800f77c        0x0 /tmp/cc0IPsVg.ltrans2.ltrans.o
                                          0x8 (size before relaxing)
 .ARM.exidx.text.__default_exit
                0x000000000800f77c        0x0 /tmp/cc0IPsVg.ltrans2.ltrans.o
                                          0x8 (size before relaxing)
 .ARM.exidx.text.__late_init
                0x000000000800f77c        0x0 /tmp/cc0IPsVg.ltrans2.ltrans.o
                                          0x8 (size before relaxing)
 .ARM.exidx.text.__core_init
                0x000000000800f77c        0x0 /tmp/cc0IPsVg.ltrans2.ltrans.o
                                          0x8 (size before relaxing)
 .ARM.exidx.text.sduInterruptTransmitted
                0x000000000800f77c        0x0 /tmp/cc0IPsVg.ltrans3.ltrans.o
                                          0x8 (size before relaxing)
 .ARM.exidx.text.usbStartTransmitI
                0x000000000800f77c        0x0 /tmp/cc0IPsVg.ltrans3.ltrans.o
                                          0x8 (size before relaxing)
 .ARM.exidx.text.usbStartReceiveI
                0x000000000800f77c        0x0 /tmp/cc0IPsVg.ltrans3.ltrans.o
                                          0x8 (size before relaxing)
 .ARM.exidx.text._usb_ep0setup
                0x000000000800f77c        0x0 /tmp/cc0IPsVg.ltrans3.ltrans.o
                                          0x8 (size before relaxing)
 .ARM.exidx.text.usbInitEndpointI
                0x000000000800f77c        0x0 /tmp/cc0IPsVg.ltrans3.ltrans.o
                                          0x8 (size before relaxing)
 .ARM.exidx.text.spiReleaseBus
                0x000000000800f77c        0x0 /tmp/cc0IPsVg.ltrans3.ltrans.o
                                          0x8 (size before relaxing)
 .ARM.exidx.text.spiAcquireBus
                0x000000000800f77c        0x0 /tmp/cc0IPsVg.ltrans3.ltrans.o
                                          0x8 (size before relaxing)
 .ARM.exidx.text.spiReceive
                0x000000000800f77c        0x0 /tmp/cc0IPsVg.ltrans3.ltrans.o
                                          0x8 (size before relaxing)
 .ARM.exidx.text.spiSend
                0x000000000800f77c        0x0 /tmp/cc0IPsVg.ltrans3.ltrans.o
                                          0x8 (size before relaxing)
 .ARM.exidx.text.spiUnselect
                0x000000000800f77c        0x0 /tmp/cc0IPsVg.ltrans3.ltrans.o
                                          0x8 (size before relaxing)
 .ARM.exidx.text.spiSelect
                0x000000000800f77c        0x0 /tmp/cc0IPsVg.ltrans3.ltrans.o
                                          0x8 (size before relaxing)
 .ARM.exidx.text._mmcsd_get_slice
                0x000000000800f77c        0x0 /tmp/cc0IPsVg.ltrans4.ltrans.o
                                          0x8 (size before relaxing)
 .ARM.exidx.text.unlikely._mmcsd_get_capacity
                0x000000000800f77c        0x0 /tmp/cc0IPsVg.ltrans4.ltrans.o
                                          0x8 (size before relaxing)
 .ARM.exidx.text.sdcConnect
                0x000000000800f77c        0x0 /tmp/cc0IPsVg.ltrans4.ltrans.o
                                          0x8 (size before relaxing)
 .ARM.exidx.text.obqPostFullBufferS
                0x000000000800f77c        0x0 /tmp/cc0IPsVg.ltrans4.ltrans.o
                                          0x8 (size before relaxing)
 .ARM.exidx.text.obqGetEmptyBufferTimeoutS
                0x000000000800f77c        0x0 /tmp/cc0IPsVg.ltrans4.ltrans.o
                                          0x8 (size before relaxing)
 .ARM.exidx.text._sdc_wait_for_transfer_state
                0x000000000800f77c        0x0 /tmp/cc0IPsVg.ltrans4.ltrans.o
                                          0x8 (size before relaxing)
 .ARM.exidx.text.obqGetFullBufferI
                0x000000000800f77c        0x0 /tmp/cc0IPsVg.ltrans4.ltrans.o
                                          0x8 (size before relaxing)
 .ARM.exidx.text.obqWriteTimeout
                0x000000000800f77c        0x0 /tmp/cc0IPsVg.ltrans4.ltrans.o
                                          0x8 (size before relaxing)
 .ARM.exidx.text.obqPutTimeout
                0x000000000800f77c        0x0 /tmp/cc0IPsVg.ltrans4.ltrans.o
                                          0x8 (size before relaxing)
 .ARM.exidx.text.ibqReadTimeout
                0x000000000800f77c        0x0 /tmp/cc0IPsVg.ltrans4.ltrans.o
                                          0x8 (size before relaxing)
 .ARM.exidx.text.matlab_thread
                0x000000000800f77c        0x0 /tmp/cc0IPsVg.ltrans5.ltrans.o
                                          0x8 (size before relaxing)
 .ARM.exidx.text.flashWrite.part.5.lto_priv.124
                0x000000000800f77c        0x0 /tmp/cc0IPsVg.ltrans5.ltrans.o
                                          0x8 (size before relaxing)
 .ARM.exidx.text.flashUnlock.part.1.lto_priv.125
                0x000000000800f77c        0x0 /tmp/cc0IPsVg.ltrans5.ltrans.o
                                          0x8 (size before relaxing)
 .ARM.exidx.text.flashRead
                0x000000000800f77c        0x0 /tmp/cc0IPsVg.ltrans5.ltrans.o
                                          0x8 (size before relaxing)
 .ARM.exidx.text.chprintf
                0x000000000800f77c        0x0 /tmp/cc0IPsVg.ltrans5.ltrans.o
                                          0x8 (size before relaxing)
 .ARM.exidx.text.cmd_test
                0x000000000800f77c        0x0 /tmp/cc0IPsVg.ltrans5.ltrans.o
                                          0x8 (size before relaxing)
 .ARM.exidx.text.cmd_calibrate
                0x000000000800f77c        0x0 /tmp/cc0IPsVg.ltrans5.ltrans.o
                                          0x8 (size before relaxing)
 .ARM.exidx.text.cmd_data
                0x000000000800f77c        0x0 /tmp/cc0IPsVg.ltrans5.ltrans.o
                                          0x8 (size before relaxing)
 .ARM.exidx.text.sdc_lld_is_write_protected
                0x000000000800f77c        0x0 /tmp/cc0IPsVg.ltrans6.ltrans.o
                                          0x8 (size before relaxing)
 .ARM.exidx.text.sdc_lld_is_card_inserted
                0x000000000800f77c        0x0 /tmp/cc0IPsVg.ltrans6.ltrans.o
                                          0x8 (size before relaxing)
 .ARM.exidx.text.pwm_lld_serve_interrupt
                0x000000000800f77c        0x0 /tmp/cc0IPsVg.ltrans6.ltrans.o
                                          0x8 (size before relaxing)
 .ARM.exidx.text.spi_lld_serve_tx_interrupt.lto_priv.118
                0x000000000800f77c        0x0 /tmp/cc0IPsVg.ltrans6.ltrans.o
                                          0x8 (size before relaxing)
 .ARM.exidx.text.cmd_info
                0x000000000800f77c        0x0 /tmp/cc0IPsVg.ltrans6.ltrans.o
                                          0x8 (size before relaxing)
 .ARM.exidx.text.VectorF8
                0x000000000800f77c        0x0 /tmp/cc0IPsVg.ltrans6.ltrans.o
                                          0x8 (size before relaxing)
 .ARM.exidx.text.VectorF0
                0x000000000800f77c        0x0 /tmp/cc0IPsVg.ltrans6.ltrans.o
                                          0x8 (size before relaxing)
 .ARM.exidx.text.VectorB8
                0x000000000800f77c        0x0 /tmp/cc0IPsVg.ltrans6.ltrans.o
                                          0x8 (size before relaxing)
 .ARM.exidx.text.VectorB4
                0x000000000800f77c        0x0 /tmp/cc0IPsVg.ltrans6.ltrans.o
                                          0x8 (size before relaxing)
 .ARM.exidx.text.VectorAC
                0x000000000800f77c        0x0 /tmp/cc0IPsVg.ltrans6.ltrans.o
                                          0x8 (size before relaxing)
 .ARM.exidx.text.VectorA4
                0x000000000800f77c        0x0 /tmp/cc0IPsVg.ltrans6.ltrans.o
                                          0x8 (size before relaxing)
 .ARM.exidx.text.serve_usart_irq
                0x000000000800f77c        0x0 /tmp/cc0IPsVg.ltrans6.ltrans.o
                                          0x8 (size before relaxing)
 .ARM.exidx.text.Vector110
                0x000000000800f77c        0x0 /tmp/cc0IPsVg.ltrans6.ltrans.o
                                          0x8 (size before relaxing)
 .ARM.exidx.text.VectorD4
                0x000000000800f77c        0x0 /tmp/cc0IPsVg.ltrans6.ltrans.o
                                          0x8 (size before relaxing)
 .ARM.exidx.text.uart_lld_serve_tx_end_irq.lto_priv.151
                0x000000000800f77c        0x0 /tmp/cc0IPsVg.ltrans6.ltrans.o
                                          0x8 (size before relaxing)
 .ARM.exidx.text.uart_lld_serve_rx_end_irq.lto_priv.150
                0x000000000800f77c        0x0 /tmp/cc0IPsVg.ltrans6.ltrans.o
                                          0x8 (size before relaxing)
 .ARM.exidx.text.spi_lld_serve_rx_interrupt.lto_priv.117
                0x000000000800f77c        0x0 /tmp/cc0IPsVg.ltrans6.ltrans.o
                                          0x8 (size before relaxing)
 .ARM.exidx.text.Vector104
                0x000000000800f77c        0x0 /tmp/cc0IPsVg.ltrans6.ltrans.o
                                          0x8 (size before relaxing)
 .ARM.exidx.text.long_to_string_with_divisor.lto_priv.158
                0x000000000800f77c        0x0 /tmp/cc0IPsVg.ltrans6.ltrans.o
                                          0x8 (size before relaxing)
 .ARM.exidx.text.__early_init
                0x000000000800f77c        0x0 /tmp/cc0IPsVg.ltrans6.ltrans.o
                                          0x8 (size before relaxing)
 .ARM.exidx.text.sdc_lld_collect_errors.isra.0.lto_priv.165
                0x000000000800f77c        0x0 /tmp/cc0IPsVg.ltrans6.ltrans.o
                                          0x8 (size before relaxing)
 .ARM.exidx.text.sdc_lld_send_cmd_long_crc
                0x000000000800f77c        0x0 /tmp/cc0IPsVg.ltrans6.ltrans.o
                                          0x8 (size before relaxing)
 .ARM.exidx.text.sdc_lld_send_cmd_short_crc
                0x000000000800f77c        0x0 /tmp/cc0IPsVg.ltrans6.ltrans.o
                                          0x8 (size before relaxing)
 .ARM.exidx.text.sdc_lld_write_aligned.part.5.lto_priv.173
                0x000000000800f77c        0x0 /tmp/cc0IPsVg.ltrans6.ltrans.o
                                          0x8 (size before relaxing)
 .ARM.exidx.text.sdc_lld_read_aligned.part.4.lto_priv.174
                0x000000000800f77c        0x0 /tmp/cc0IPsVg.ltrans6.ltrans.o
                                          0x8 (size before relaxing)
 .ARM.exidx.text.sdc_lld_read_special
                0x000000000800f77c        0x0 /tmp/cc0IPsVg.ltrans6.ltrans.o
                                          0x8 (size before relaxing)
 .ARM.exidx.text.shell_thread.lto_priv.96
                0x000000000800f77c        0x0 /tmp/cc0IPsVg.ltrans6.ltrans.o
                                          0x8 (size before relaxing)
 .ARM.exidx.text.cmd_systime
                0x000000000800f77c        0x0 /tmp/cc0IPsVg.ltrans6.ltrans.o
                                          0x8 (size before relaxing)
 .ARM.exidx.text.Vector4C
                0x000000000800f77c        0x0 /tmp/cc0IPsVg.ltrans7.ltrans.o
                                          0x8 (size before relaxing)
 .ARM.exidx.text.Vector48
                0x000000000800f77c        0x0 /tmp/cc0IPsVg.ltrans7.ltrans.o
                                          0x8 (size before relaxing)
 .ARM.exidx.text.Vector170
                0x000000000800f77c        0x0 /tmp/cc0IPsVg.ltrans7.ltrans.o
                                          0x8 (size before relaxing)
 .ARM.exidx.text.Vector138
                0x000000000800f77c        0x0 /tmp/cc0IPsVg.ltrans7.ltrans.o
                                          0x8 (size before relaxing)
 .ARM.exidx.text.VectorE8
                0x000000000800f77c        0x0 /tmp/cc0IPsVg.ltrans7.ltrans.o
                                          0x8 (size before relaxing)
 .ARM.exidx.text.VectorE4
                0x000000000800f77c        0x0 /tmp/cc0IPsVg.ltrans7.ltrans.o
                                          0x8 (size before relaxing)
 .ARM.exidx.text.Vector44
                0x000000000800f77c        0x0 /tmp/cc0IPsVg.ltrans7.ltrans.o
                                          0x8 (size before relaxing)
 .ARM.exidx.text.VectorE0
                0x000000000800f77c        0x0 /tmp/cc0IPsVg.ltrans7.ltrans.o
                                          0x8 (size before relaxing)
 .ARM.exidx.text.sdc_lld_error_cleanup.lto_priv.160
                0x000000000800f77c        0x0 /tmp/cc0IPsVg.ltrans7.ltrans.o
                                          0x8 (size before relaxing)
 .ARM.exidx.text.usb_lld_start_in
                0x000000000800f77c        0x0 /tmp/cc0IPsVg.ltrans7.ltrans.o
                                          0x8 (size before relaxing)
 .ARM.exidx.text.otg_epin_handler
                0x000000000800f77c        0x0 /tmp/cc0IPsVg.ltrans7.ltrans.o
                                          0x8 (size before relaxing)
 .ARM.exidx.text.usb_lld_start_out
                0x000000000800f77c        0x0 /tmp/cc0IPsVg.ltrans7.ltrans.o
                                          0x8 (size before relaxing)
 .ARM.exidx.text.otg_epout_handler
                0x000000000800f77c        0x0 /tmp/cc0IPsVg.ltrans7.ltrans.o
                                          0x8 (size before relaxing)
 .ARM.exidx.text.usb_lld_serve_interrupt
                0x000000000800f77c        0x0 /tmp/cc0IPsVg.ltrans7.ltrans.o
                                          0x8 (size before relaxing)
 .ARM.exidx.text.Vector174
                0x000000000800f77c        0x0 /tmp/cc0IPsVg.ltrans7.ltrans.o
                                          0x8 (size before relaxing)
 .ARM.exidx.text.Vector14C
                0x000000000800f77c        0x0 /tmp/cc0IPsVg.ltrans7.ltrans.o
                                          0x8 (size before relaxing)
 .ARM.exidx.text.sdc_lld_wait_transaction_end.lto_priv.159
                0x000000000800f77c        0x0 /tmp/cc0IPsVg.ltrans7.ltrans.o
                                          0x8 (size before relaxing)
 .ARM.exidx.text.usb_lld_pump
                0x000000000800f77c        0x0 /tmp/cc0IPsVg.ltrans7.ltrans.o
                                          0x8 (size before relaxing)
 .ARM.exidx.text.PID_VEL
                0x000000000800f77c        0x0 /tmp/cc0IPsVg.ltrans8.ltrans.o
                                          0x8 (size before relaxing)
 .ARM.exidx.text.turn_angle
                0x000000000800f77c        0x0 /tmp/cc0IPsVg.ltrans8.ltrans.o
                                          0x8 (size before relaxing)
 .ARM.exidx.text.get_descriptor.lto_priv.101
                0x000000000800f77c        0x0 /tmp/cc0IPsVg.ltrans8.ltrans.o
                                          0x8 (size before relaxing)
 .ARM.exidx.text.pwm_thd.lto_priv.91
                0x000000000800f77c        0x0 /tmp/cc0IPsVg.ltrans8.ltrans.o
                                          0x8 (size before relaxing)
 .ARM.exidx.text.sof_handler.lto_priv.102
                0x000000000800f77c        0x0 /tmp/cc0IPsVg.ltrans8.ltrans.o
                                          0x8 (size before relaxing)
 .ARM.exidx.text.usb_event.lto_priv.100
                0x000000000800f77c        0x0 /tmp/cc0IPsVg.ltrans8.ltrans.o
                                          0x8 (size before relaxing)
 .ARM.exidx.text.params_set.part.0.lto_priv.111
                0x000000000800f77c        0x0 /tmp/cc0IPsVg.ltrans8.ltrans.o
                                          0x8 (size before relaxing)
 .ARM.exidx.text.param_save_flash
                0x000000000800f77c        0x0 /tmp/cc0IPsVg.ltrans8.ltrans.o
                                          0x8 (size before relaxing)
 .ARM.exidx.text.Temperature_thread.lto_priv.114
                0x000000000800f77c        0x0 /tmp/cc0IPsVg.ltrans8.ltrans.o
                                          0x8 (size before relaxing)
 .ARM.exidx.text.feeder_control.lto_priv.89
                0x000000000800f77c        0x0 /tmp/cc0IPsVg.ltrans8.ltrans.o
                                          0x8 (size before relaxing)
 .ARM.exidx.text.Vector9C
                0x000000000800f77c        0x0 /tmp/cc0IPsVg.ltrans9.ltrans.o
                                          0x8 (size before relaxing)
 .ARM.exidx.text.Vector68
                0x000000000800f77c        0x0 /tmp/cc0IPsVg.ltrans9.ltrans.o
                                          0x8 (size before relaxing)
 .ARM.exidx.text.Vector64
                0x000000000800f77c        0x0 /tmp/cc0IPsVg.ltrans9.ltrans.o
                                          0x8 (size before relaxing)
 .ARM.exidx.text.Vector60
                0x000000000800f77c        0x0 /tmp/cc0IPsVg.ltrans9.ltrans.o
                                          0x8 (size before relaxing)
 .ARM.exidx.text.Vector5C
                0x000000000800f77c        0x0 /tmp/cc0IPsVg.ltrans9.ltrans.o
                                          0x8 (size before relaxing)
 .ARM.exidx.text.Vector58
                0x000000000800f77c        0x0 /tmp/cc0IPsVg.ltrans9.ltrans.o
                                          0x8 (size before relaxing)
 .ARM.exidx.text.Vector158
                0x000000000800f77c        0x0 /tmp/cc0IPsVg.ltrans9.ltrans.o
                                          0x8 (size before relaxing)
 .ARM.exidx.text.Vector154
                0x000000000800f77c        0x0 /tmp/cc0IPsVg.ltrans9.ltrans.o
                                          0x8 (size before relaxing)
 .ARM.exidx.text.Vector150
                0x000000000800f77c        0x0 /tmp/cc0IPsVg.ltrans9.ltrans.o
                                          0x8 (size before relaxing)
 .ARM.exidx.text.Vector130
                0x000000000800f77c        0x0 /tmp/cc0IPsVg.ltrans9.ltrans.o
                                          0x8 (size before relaxing)
 .ARM.exidx.text.Vector12C
                0x000000000800f77c        0x0 /tmp/cc0IPsVg.ltrans9.ltrans.o
                                          0x8 (size before relaxing)
 .ARM.exidx.text.Vector128
                0x000000000800f77c        0x0 /tmp/cc0IPsVg.ltrans9.ltrans.o
                                          0x8 (size before relaxing)
 .ARM.exidx.text.Vector124
                0x000000000800f77c        0x0 /tmp/cc0IPsVg.ltrans9.ltrans.o
                                          0x8 (size before relaxing)
 .ARM.exidx.text.Vector120
                0x000000000800f77c        0x0 /tmp/cc0IPsVg.ltrans9.ltrans.o
                                          0x8 (size before relaxing)
 .ARM.exidx.text.VectorFC
                0x000000000800f77c        0x0 /tmp/cc0IPsVg.ltrans9.ltrans.o
                                          0x8 (size before relaxing)
 .ARM.exidx.text.Vector84
                0x000000000800f77c        0x0 /tmp/cc0IPsVg.ltrans9.ltrans.o
                                          0x8 (size before relaxing)
 .ARM.exidx.text.Vector80
                0x000000000800f77c        0x0 /tmp/cc0IPsVg.ltrans9.ltrans.o
                                          0x8 (size before relaxing)
 .ARM.exidx.text.Vector7C
                0x000000000800f77c        0x0 /tmp/cc0IPsVg.ltrans9.ltrans.o
                                          0x8 (size before relaxing)
 .ARM.exidx.text.Vector78
                0x000000000800f77c        0x0 /tmp/cc0IPsVg.ltrans9.ltrans.o
                                          0x8 (size before relaxing)
 .ARM.exidx.text.Vector74
                0x000000000800f77c        0x0 /tmp/cc0IPsVg.ltrans9.ltrans.o
                                          0x8 (size before relaxing)
 .ARM.exidx.text.Vector70
                0x000000000800f77c        0x0 /tmp/cc0IPsVg.ltrans9.ltrans.o
                                          0x8 (size before relaxing)
 .ARM.exidx.text.Vector6C
                0x000000000800f77c        0x0 /tmp/cc0IPsVg.ltrans9.ltrans.o
                                          0x8 (size before relaxing)
 .ARM.exidx.text.can_lld_sce_handler
                0x000000000800f77c        0x0 /tmp/cc0IPsVg.ltrans9.ltrans.o
                                          0x8 (size before relaxing)
 .ARM.exidx.text.Vector148
                0x000000000800f77c        0x0 /tmp/cc0IPsVg.ltrans9.ltrans.o
                                          0x8 (size before relaxing)
 .ARM.exidx.text.Vector98
                0x000000000800f77c        0x0 /tmp/cc0IPsVg.ltrans9.ltrans.o
                                          0x8 (size before relaxing)
 .ARM.exidx.text.can_lld_rx1_handler
                0x000000000800f77c        0x0 /tmp/cc0IPsVg.ltrans9.ltrans.o
                                          0x8 (size before relaxing)
 .ARM.exidx.text.Vector144
                0x000000000800f77c        0x0 /tmp/cc0IPsVg.ltrans9.ltrans.o
                                          0x8 (size before relaxing)
 .ARM.exidx.text.Vector94
                0x000000000800f77c        0x0 /tmp/cc0IPsVg.ltrans9.ltrans.o
                                          0x8 (size before relaxing)
 .ARM.exidx.text.can_lld_rx0_handler
                0x000000000800f77c        0x0 /tmp/cc0IPsVg.ltrans9.ltrans.o
                                          0x8 (size before relaxing)
 .ARM.exidx.text.Vector140
                0x000000000800f77c        0x0 /tmp/cc0IPsVg.ltrans9.ltrans.o
                                          0x8 (size before relaxing)
 .ARM.exidx.text.Vector90
                0x000000000800f77c        0x0 /tmp/cc0IPsVg.ltrans9.ltrans.o
                                          0x8 (size before relaxing)
 .ARM.exidx.text.can_lld_tx_handler
                0x000000000800f77c        0x0 /tmp/cc0IPsVg.ltrans9.ltrans.o
                                          0x8 (size before relaxing)
 .ARM.exidx.text.Vector13C
                0x000000000800f77c        0x0 /tmp/cc0IPsVg.ltrans9.ltrans.o
                                          0x8 (size before relaxing)
 .ARM.exidx.text.Vector8C
                0x000000000800f77c        0x0 /tmp/cc0IPsVg.ltrans9.ltrans.o
                                          0x8 (size before relaxing)
 .ARM.exidx.text.VectorB0
                0x000000000800f77c        0x0 /tmp/cc0IPsVg.ltrans9.ltrans.o
                                          0x8 (size before relaxing)
 .ARM.exidx.text._usb_ep0out
                0x000000000800f77c        0x0 /tmp/cc0IPsVg.ltrans9.ltrans.o
                                          0x8 (size before relaxing)
 .ARM.exidx.text._usb_ep0in
                0x000000000800f77c        0x0 /tmp/cc0IPsVg.ltrans9.ltrans.o
                                          0x8 (size before relaxing)
 .ARM.exidx.text.dmaStreamAllocate
                0x000000000800f77c        0x0 /tmp/cc0IPsVg.ltrans9.ltrans.o
                                          0x8 (size before relaxing)
 .ARM.exidx.text.rxend.lto_priv.152
                0x000000000800f77c        0x0 /tmp/cc0IPsVg.ltrans10.ltrans.o
                                          0x8 (size before relaxing)
 .ARM.exidx.text.cmd_temp
                0x000000000800f77c        0x0 /tmp/cc0IPsVg.ltrans10.ltrans.o
                                          0x8 (size before relaxing)
 .ARM.exidx.text.RC_reset.lto_priv.113
                0x000000000800f77c        0x0 /tmp/cc0IPsVg.ltrans10.ltrans.o
                                          0x8 (size before relaxing)
 .ARM.exidx.text.lpfilter_apply
                0x000000000800f77c        0x0 /tmp/cc0IPsVg.ltrans10.ltrans.o
                                          0x8 (size before relaxing)
 .ARM.exidx.text.imuGetDataRaw
                0x000000000800f77c        0x0 /tmp/cc0IPsVg.ltrans10.ltrans.o
                                          0x8 (size before relaxing)
 .ARM.exidx.text.imuGetData
                0x000000000800f77c        0x0 /tmp/cc0IPsVg.ltrans10.ltrans.o
                                          0x8 (size before relaxing)
 .ARM.exidx.text.can_rx.lto_priv.95
                0x000000000800f77c        0x0 /tmp/cc0IPsVg.ltrans10.ltrans.o
                                          0x8 (size before relaxing)
 .ARM.exidx.text.gimbal_encoderUpdate.lto_priv.112
                0x000000000800f77c        0x0 /tmp/cc0IPsVg.ltrans11.ltrans.o
                                          0x8 (size before relaxing)
 .ARM.exidx.text.gimbal_kill
                0x000000000800f77c        0x0 /tmp/cc0IPsVg.ltrans11.ltrans.o
                                          0x8 (size before relaxing)
 .ARM.exidx.text.uart_dbus_thread.lto_priv.94
                0x000000000800f77c        0x0 /tmp/cc0IPsVg.ltrans11.ltrans.o
                                          0x8 (size before relaxing)
 .ARM.exidx.text.cmd_param_scale
                0x000000000800f77c        0x0 /tmp/cc0IPsVg.ltrans12.ltrans.o
                                          0x8 (size before relaxing)
 .ARM.exidx.text.cmd_param_update
                0x000000000800f77c        0x0 /tmp/cc0IPsVg.ltrans12.ltrans.o
                                          0x8 (size before relaxing)
 .ARM.exidx.text.sendLine
                0x000000000800f77c        0x0 /tmp/cc0IPsVg.ltrans12.ltrans.o
                                          0x8 (size before relaxing)
 .ARM.exidx.text.cmd_param_tx
                0x000000000800f77c        0x0 /tmp/cc0IPsVg.ltrans12.ltrans.o
                                          0x8 (size before relaxing)
 .ARM.exidx.text.cmd_param_rx
                0x000000000800f77c        0x0 /tmp/cc0IPsVg.ltrans12.ltrans.o
                                          0x8 (size before relaxing)
 .ARM.exidx.text.gimbal_init_thread.lto_priv.92
                0x000000000800f77c        0x0 /tmp/cc0IPsVg.ltrans12.ltrans.o
                                          0x8 (size before relaxing)
 .ARM.exidx.text.gimbal_thread.lto_priv.93
                0x000000000800f77c        0x0 /tmp/cc0IPsVg.ltrans12.ltrans.o
                                          0x8 (size before relaxing)
 .ARM.exidx.text.sduRequestsHook
                0x000000000800f77c        0x0 /tmp/cc0IPsVg.ltrans13.ltrans.o
                                          0x8 (size before relaxing)
 .ARM.exidx.text.sdcGetInfo
                0x000000000800f77c        0x0 /tmp/cc0IPsVg.ltrans13.ltrans.o
                                          0x8 (size before relaxing)
 .ARM.exidx.text.sdcSync
                0x000000000800f77c        0x0 /tmp/cc0IPsVg.ltrans13.ltrans.o
                                          0x8 (size before relaxing)
 .ARM.exidx.text.sduDataTransmitted
                0x000000000800f77c        0x0 /tmp/cc0IPsVg.ltrans13.ltrans.o
                                          0x8 (size before relaxing)
 .ARM.exidx.text.obnotify.lto_priv.98
                0x000000000800f77c        0x0 /tmp/cc0IPsVg.ltrans13.ltrans.o
                                          0x8 (size before relaxing)
 .ARM.exidx.text.readt.lto_priv.110
                0x000000000800f77c        0x0 /tmp/cc0IPsVg.ltrans13.ltrans.o
                                          0x8 (size before relaxing)
 .ARM.exidx.text.read.lto_priv.104
                0x000000000800f77c        0x0 /tmp/cc0IPsVg.ltrans13.ltrans.o
                                          0x8 (size before relaxing)
 .ARM.exidx.text.writet.lto_priv.109
                0x000000000800f77c        0x0 /tmp/cc0IPsVg.ltrans13.ltrans.o
                                          0x8 (size before relaxing)
 .ARM.exidx.text.write.lto_priv.103
                0x000000000800f77c        0x0 /tmp/cc0IPsVg.ltrans13.ltrans.o
                                          0x8 (size before relaxing)
 .ARM.exidx.text.gett.lto_priv.108
                0x000000000800f77c        0x0 /tmp/cc0IPsVg.ltrans13.ltrans.o
                                          0x8 (size before relaxing)
 .ARM.exidx.text.get.lto_priv.106
                0x000000000800f77c        0x0 /tmp/cc0IPsVg.ltrans13.ltrans.o
                                          0x8 (size before relaxing)
 .ARM.exidx.text.putt.lto_priv.107
                0x000000000800f77c        0x0 /tmp/cc0IPsVg.ltrans13.ltrans.o
                                          0x8 (size before relaxing)
 .ARM.exidx.text.put.lto_priv.105
                0x000000000800f77c        0x0 /tmp/cc0IPsVg.ltrans13.ltrans.o
                                          0x8 (size before relaxing)
 .ARM.exidx.text.sdcWrite
                0x000000000800f77c        0x0 /tmp/cc0IPsVg.ltrans13.ltrans.o
                                          0x8 (size before relaxing)
 .ARM.exidx.text.sdcRead
                0x000000000800f77c        0x0 /tmp/cc0IPsVg.ltrans13.ltrans.o
                                          0x8 (size before relaxing)
 .ARM.exidx.text.sdu_start_receive.lto_priv.123
                0x000000000800f77c        0x0 /tmp/cc0IPsVg.ltrans13.ltrans.o
                                          0x8 (size before relaxing)
 .ARM.exidx.text.sduDataReceived
                0x000000000800f77c        0x0 /tmp/cc0IPsVg.ltrans13.ltrans.o
                                          0x8 (size before relaxing)
 .ARM.exidx.text.ibnotify.lto_priv.97
                0x000000000800f77c        0x0 /tmp/cc0IPsVg.ltrans13.ltrans.o
                                          0x8 (size before relaxing)
 .ARM.exidx.text.sdcDisconnect
                0x000000000800f77c        0x0 /tmp/cc0IPsVg.ltrans13.ltrans.o
                                          0x8 (size before relaxing)
 .ARM.exidx.text.chSchWakeupS.constprop.76
                0x000000000800f77c        0x0 /tmp/cc0IPsVg.ltrans14.ltrans.o
                                          0x8 (size before relaxing)
 .ARM.exidx.text.chThdResumeS.constprop.73
                0x000000000800f77c        0x0 /tmp/cc0IPsVg.ltrans14.ltrans.o
                                          0x8 (size before relaxing)
 .ARM.exidx.text.can_lld_set_filters.constprop.66
                0x000000000800f77c        0x0 /tmp/cc0IPsVg.ltrans14.ltrans.o
                                          0x8 (size before relaxing)
 .ARM.exidx.text._strtok.constprop.21
                0x000000000800f77c        0x0 /tmp/cc0IPsVg.ltrans14.ltrans.o
                                          0x8 (size before relaxing)
 .ARM.exidx.text.lpfilter_init.constprop.11
                0x000000000800f77c        0x0 /tmp/cc0IPsVg.ltrans14.ltrans.o
                                          0x8 (size before relaxing)
 .ARM.exidx.text.pwmEnableChannel.constprop.46
                0x000000000800f77c        0x0 /tmp/cc0IPsVg.ltrans14.ltrans.o
                                          0x8 (size before relaxing)
 .ARM.exidx.text.can_motorSetCurrent.constprop.4
                0x000000000800f77c        0x0 /tmp/cc0IPsVg.ltrans14.ltrans.o
                                          0x8 (size before relaxing)
                0x000000000800f77c                __exidx_end = .

.rel.dyn        0x000000000800f77c        0x0
 .rel.iplt      0x000000000800f77c        0x0 build/obj/crt0_v7m.o

.eh_frame_hdr
 *(.eh_frame_hdr)

.eh_frame
 *(.eh_frame)

.textalign      0x000000000800f77c        0x4
                0x000000000800f780                . = ALIGN (0x8)
 *fill*         0x000000000800f77c        0x4 
                0x000000000800f780                . = ALIGN (0x4)
                [!provide]                        PROVIDE (_etext, .)

.mstack         0x0000000020000000      0x400
                0x0000000020000000                . = ALIGN (0x8)
                0x0000000020000000                __main_stack_base__ = .
                0x0000000020000400                . = (. + __main_stack_size__)
 *fill*         0x0000000020000000      0x400 
                0x0000000020000400                . = ALIGN (0x8)
                0x0000000020000400                __main_stack_end__ = .

.pstack         0x0000000020000400      0x400
                0x0000000020000400                __process_stack_base__ = .
                0x0000000020000400                __main_thread_stack_base__ = .
                0x0000000020000800                . = (. + __process_stack_size__)
 *fill*         0x0000000020000400      0x400 
                0x0000000020000800                . = ALIGN (0x8)
                0x0000000020000800                __process_stack_end__ = .
                0x0000000020000800                __main_thread_stack_end__ = .

.data           0x0000000020000800      0x494 load address 0x000000000800f780
                0x0000000020000800                . = ALIGN (0x4)
                [!provide]                        PROVIDE (_textdata, LOADADDR (.data))
                [!provide]                        PROVIDE (_data, .)
                0x000000000800f780                _textdata_start = LOADADDR (.data)
                0x0000000020000800                _data_start = .
 *(.data)
 *(.data.*)
 .data.pwm3cfg  0x0000000020000800       0x34 /tmp/cc0IPsVg.ltrans1.ltrans.o
 .data.speed_sp
                0x0000000020000834        0x4 /tmp/cc0IPsVg.ltrans8.ltrans.o
 .data.rx_start_flag
                0x0000000020000838        0x1 /tmp/cc0IPsVg.ltrans10.ltrans.o
 *fill*         0x0000000020000839        0x3 
 .data.uart_cfg
                0x000000002000083c       0x20 /tmp/cc0IPsVg.ltrans11.ltrans.o
 .data.linecoding
                0x000000002000085c        0x7 /tmp/cc0IPsVg.ltrans13.ltrans.o
 .data.__fdlib_version
                0x0000000020000863        0x1 /usr/lib/gcc/arm-none-eabi/4.9.3/../../../arm-none-eabi/lib/armv7e-m/fpu/libm.a(lib_a-s_lib_ver.o)
                0x0000000020000863                __fdlib_version
 *fill*         0x0000000020000864        0x4 
 .data.impure_data
                0x0000000020000868      0x428 /usr/lib/gcc/arm-none-eabi/4.9.3/../../../arm-none-eabi/lib/armv7e-m/fpu/libg.a(lib_a-impure.o)
 .data._impure_ptr
                0x0000000020000c90        0x4 /usr/lib/gcc/arm-none-eabi/4.9.3/../../../arm-none-eabi/lib/armv7e-m/fpu/libg.a(lib_a-impure.o)
                0x0000000020000c90                _impure_ptr
 *(.ramtext)
                0x0000000020000c94                . = ALIGN (0x4)
                [!provide]                        PROVIDE (_edata, .)
                0x0000000020000c94                _data_end = .

.igot.plt       0x0000000020000c94        0x0 load address 0x000000000800fc14
 .igot.plt      0x0000000020000c94        0x0 build/obj/crt0_v7m.o

.bss            0x0000000020000c98     0x6d2c load address 0x000000000800fc14
                0x0000000020000c98                . = ALIGN (0x4)
                0x0000000020000c98                _bss_start = .
 *(.bss)
 *(.bss.*)
 .bss.canfilter
                0x0000000020000c98      0x1c0 /tmp/cc0IPsVg.ltrans0.ltrans.o
 .bss.dma_isr_redir.lto_priv.166
                0x0000000020000e58       0x80 /tmp/cc0IPsVg.ltrans0.ltrans.o
                0x0000000020000e58                dma_isr_redir.lto_priv.166
 .bss.WDGD1     0x0000000020000ed8        0xc /tmp/cc0IPsVg.ltrans0.ltrans.o
 .bss.g_IMU1    0x0000000020000ee4       0xc2 /tmp/cc0IPsVg.ltrans0.ltrans.o
                0x0000000020000ee4                g_IMU1
 *fill*         0x0000000020000fa6        0x2 
 .bss.gimbal_init_thread_wa
                0x0000000020000fa8      0x970 /tmp/cc0IPsVg.ltrans0.ltrans.o
 .bss.Shell_thread_wa
                0x0000000020001918      0x570 /tmp/cc0IPsVg.ltrans0.ltrans.o
 .bss.SDCD1     0x0000000020001e88       0x4c /tmp/cc0IPsVg.ltrans0.ltrans.o
                0x0000000020001e88                SDCD1
 .bss.shell_terminated
                0x0000000020001ed4        0x4 /tmp/cc0IPsVg.ltrans0.ltrans.o
                0x0000000020001ed4                shell_terminated
 .bss._yaw_atti.lto_priv.141
                0x0000000020001ed8       0x14 /tmp/cc0IPsVg.ltrans0.ltrans.o
                0x0000000020001ed8                _yaw_atti.lto_priv.141
 *fill*         0x0000000020001eec        0x4 
 .bss.uart_dbus_thread_wa
                0x0000000020001ef0      0x370 /tmp/cc0IPsVg.ltrans0.ltrans.o
 .bss._pitch_pos.lto_priv.136
                0x0000000020002260       0x14 /tmp/cc0IPsVg.ltrans0.ltrans.o
                0x0000000020002260                _pitch_pos.lto_priv.136
 *fill*         0x0000000020002274        0x4 
 .bss.gimbal_thread_wa
                0x0000000020002278      0x970 /tmp/cc0IPsVg.ltrans0.ltrans.o
 .bss.gimbal.lto_priv.138
                0x0000000020002be8       0xb8 /tmp/cc0IPsVg.ltrans0.ltrans.o
                0x0000000020002be8                gimbal.lto_priv.138
 .bss.feeder_control_wa
                0x0000000020002ca0      0x370 /tmp/cc0IPsVg.ltrans0.ltrans.o
 .bss.pwm_thd_wa
                0x0000000020003010      0x370 /tmp/cc0IPsVg.ltrans0.ltrans.o
 .bss.dummytx.lto_priv.172
                0x0000000020003380        0x2 /tmp/cc0IPsVg.ltrans0.ltrans.o
                0x0000000020003380                dummytx.lto_priv.172
 *fill*         0x0000000020003382        0x6 
 .bss.default_heap
                0x0000000020003388       0x20 /tmp/cc0IPsVg.ltrans0.ltrans.o
 .bss.param_private_flag.lto_priv.122
                0x00000000200033a8        0x4 /tmp/cc0IPsVg.ltrans0.ltrans.o
                0x00000000200033a8                param_private_flag.lto_priv.122
 .bss.pos_pid   0x00000000200033ac       0x14 /tmp/cc0IPsVg.ltrans0.ltrans.o
                0x00000000200033ac                pos_pid
 .bss.EXTD1     0x00000000200033c0        0x8 /tmp/cc0IPsVg.ltrans0.ltrans.o
                0x00000000200033c0                EXTD1
 .bss.p_dbus    0x00000000200033c8        0x4 /tmp/cc0IPsVg.ltrans0.ltrans.o
                0x00000000200033c8                p_dbus
 .bss.CAND2     0x00000000200033cc       0x30 /tmp/cc0IPsVg.ltrans0.ltrans.o
                0x00000000200033cc                CAND2
 .bss.lp_axis_ff
                0x00000000200033fc       0x38 /tmp/cc0IPsVg.ltrans0.ltrans.o
 .bss.feeder_encode
                0x0000000020003434        0x4 /tmp/cc0IPsVg.ltrans0.ltrans.o
                0x0000000020003434                feeder_encode
 .bss.can_rx1_wa
                0x0000000020003438      0x270 /tmp/cc0IPsVg.ltrans0.ltrans.o
 .bss._pitch_vel.lto_priv.140
                0x00000000200036a8       0x10 /tmp/cc0IPsVg.ltrans0.ltrans.o
                0x00000000200036a8                _pitch_vel.lto_priv.140
 .bss.param_valid_flag.lto_priv.121
                0x00000000200036b8        0x4 /tmp/cc0IPsVg.ltrans0.ltrans.o
                0x00000000200036b8                param_valid_flag.lto_priv.121
 *fill*         0x00000000200036bc        0x4 
 .bss.can_rx2_wa
                0x00000000200036c0      0x270 /tmp/cc0IPsVg.ltrans0.ltrans.o
 .bss.SPID4     0x0000000020003930       0x30 /tmp/cc0IPsVg.ltrans0.ltrans.o
                0x0000000020003930                SPID4
 .bss._yaw_pos.lto_priv.137
                0x0000000020003960       0x14 /tmp/cc0IPsVg.ltrans0.ltrans.o
                0x0000000020003960                _yaw_pos.lto_priv.137
 .bss.PWMD4     0x0000000020003974       0x1c /tmp/cc0IPsVg.ltrans0.ltrans.o
                0x0000000020003974                PWMD4
 .bss._yaw_vel.lto_priv.139
                0x0000000020003990       0x10 /tmp/cc0IPsVg.ltrans0.ltrans.o
                0x0000000020003990                _yaw_vel.lto_priv.139
 .bss.nextmem.lto_priv.182
                0x00000000200039a0        0x4 /tmp/cc0IPsVg.ltrans0.ltrans.o
                0x00000000200039a0                nextmem.lto_priv.182
 .bss._pitch_atti.lto_priv.142
                0x00000000200039a4       0x14 /tmp/cc0IPsVg.ltrans0.ltrans.o
                0x00000000200039a4                _pitch_atti.lto_priv.142
 .bss.RC_Ctl.lto_priv.144
                0x00000000200039b8       0x14 /tmp/cc0IPsVg.ltrans0.ltrans.o
                0x00000000200039b8                RC_Ctl.lto_priv.144
 .bss.SPID5     0x00000000200039cc       0x30 /tmp/cc0IPsVg.ltrans0.ltrans.o
                0x00000000200039cc                SPID5
 .bss.chassis_encoder.lto_priv.154
                0x00000000200039fc       0x60 /tmp/cc0IPsVg.ltrans0.ltrans.o
                0x00000000200039fc                chassis_encoder.lto_priv.154
 .bss.dma_streams_mask.lto_priv.149
                0x0000000020003a5c        0x4 /tmp/cc0IPsVg.ltrans0.ltrans.o
                0x0000000020003a5c                dma_streams_mask.lto_priv.149
 .bss.endmem.lto_priv.181
                0x0000000020003a60        0x4 /tmp/cc0IPsVg.ltrans0.ltrans.o
                0x0000000020003a60                endmem.lto_priv.181
 .bss.SDU1      0x0000000020003a64      0x488 /tmp/cc0IPsVg.ltrans0.ltrans.o
                0x0000000020003a64                SDU1
 .bss.rc.lto_priv.90
                0x0000000020003eec        0x4 /tmp/cc0IPsVg.ltrans0.ltrans.o
                0x0000000020003eec                rc.lto_priv.90
 .bss.UARTD1    0x0000000020003ef0       0x28 /tmp/cc0IPsVg.ltrans0.ltrans.o
                0x0000000020003ef0                UARTD1
 .bss.UARTD3    0x0000000020003f18       0x28 /tmp/cc0IPsVg.ltrans0.ltrans.o
                0x0000000020003f18                UARTD3
 .bss.UARTD6    0x0000000020003f40       0x28 /tmp/cc0IPsVg.ltrans0.ltrans.o
                0x0000000020003f40                UARTD6
 .bss.vel_pid   0x0000000020003f68       0x14 /tmp/cc0IPsVg.ltrans0.ltrans.o
                0x0000000020003f68                vel_pid
 *fill*         0x0000000020003f7c        0x4 
 .bss.USBD1     0x0000000020003f80      0x278 /tmp/cc0IPsVg.ltrans0.ltrans.o
                0x0000000020003f80                USBD1
 .bss.USBD2     0x00000000200041f8      0x278 /tmp/cc0IPsVg.ltrans0.ltrans.o
                0x00000000200041f8                USBD2
 .bss.gimbal_encoder.lto_priv.155
                0x0000000020004470       0x28 /tmp/cc0IPsVg.ltrans0.ltrans.o
                0x0000000020004470                gimbal_encoder.lto_priv.155
 .bss.PWMD1     0x0000000020004498       0x1c /tmp/cc0IPsVg.ltrans0.ltrans.o
                0x0000000020004498                PWMD1
 .bss.PWMD8     0x00000000200044b4       0x1c /tmp/cc0IPsVg.ltrans0.ltrans.o
                0x00000000200044b4                PWMD8
 .bss._ZL18Attitude_thread_wa
                0x00000000200044d0     0x1170 /tmp/cc0IPsVg.ltrans0.ltrans.o
 .bss.rc        0x0000000020005640        0x4 /tmp/cc0IPsVg.ltrans0.ltrans.o
                0x0000000020005640                rc
 .bss.UARTD4    0x0000000020005644       0x28 /tmp/cc0IPsVg.ltrans0.ltrans.o
                0x0000000020005644                UARTD4
 .bss.lp_angle.lto_priv.143
                0x000000002000566c       0x38 /tmp/cc0IPsVg.ltrans0.ltrans.o
                0x000000002000566c                lp_angle.lto_priv.143
 .bss.PWMD12.lto_priv.120
                0x00000000200056a4       0x1c /tmp/cc0IPsVg.ltrans0.ltrans.o
                0x00000000200056a4                PWMD12.lto_priv.120
 .bss.ist8310   0x00000000200056c0       0x28 /tmp/cc0IPsVg.ltrans1.ltrans.o
 .bss.accel_lpf.lto_priv.157
                0x00000000200056e8       0x54 /tmp/cc0IPsVg.ltrans1.ltrans.o
                0x00000000200056e8                accel_lpf.lto_priv.157
 .bss._error_int
                0x000000002000573c        0xc /tmp/cc0IPsVg.ltrans1.ltrans.o
 .bss.imuTXData.lto_priv.156
                0x0000000020005748        0x5 /tmp/cc0IPsVg.ltrans1.ltrans.o
                0x0000000020005748                imuTXData.lto_priv.156
 *fill*         0x000000002000574d        0x3 
 .bss.Temperature_thread_wa
                0x0000000020005750     0x1170 /tmp/cc0IPsVg.ltrans1.ltrans.o
 .bss.dummyrx   0x00000000200068c0        0x2 /tmp/cc0IPsVg.ltrans3.ltrans.o
 *fill*         0x00000000200068c2        0x2 
 .bss.matlab_thread_handler
                0x00000000200068c4        0x4 /tmp/cc0IPsVg.ltrans5.ltrans.o
 .bss.side_complete_count
                0x00000000200068c8        0x1 /tmp/cc0IPsVg.ltrans5.ltrans.o
 .bss.calibration_state_record
                0x00000000200068c9        0x1 /tmp/cc0IPsVg.ltrans5.ltrans.o
 *fill*         0x00000000200068ca        0x2 
 .bss.accel_ref
                0x00000000200068cc       0x48 /tmp/cc0IPsVg.ltrans5.ltrans.o
 .bss.side_data_collected
                0x0000000020006914        0x6 /tmp/cc0IPsVg.ltrans5.ltrans.o
 .bss.detect_attempt
                0x000000002000691a        0x1 /tmp/cc0IPsVg.ltrans5.ltrans.o
 *fill*         0x000000002000691b        0x5 
 .bss.matlab_thread_wa
                0x0000000020006920      0x370 /tmp/cc0IPsVg.ltrans5.ltrans.o
 .bss.ep0_state
                0x0000000020006c90       0x10 /tmp/cc0IPsVg.ltrans7.ltrans.o
 .bss.ep0setup_buffer
                0x0000000020006ca0        0x8 /tmp/cc0IPsVg.ltrans7.ltrans.o
 .bss.subparam_name.lto_priv.131
                0x0000000020006ca8       0x80 /tmp/cc0IPsVg.ltrans8.ltrans.o
                0x0000000020006ca8                subparam_name.lto_priv.131
 .bss.current_error.8876
                0x0000000020006d28        0x4 /tmp/cc0IPsVg.ltrans8.ltrans.o
 .bss.subparams_total.lto_priv.127
                0x0000000020006d2c        0x1 /tmp/cc0IPsVg.ltrans8.ltrans.o
                0x0000000020006d2c                subparams_total.lto_priv.127
 *fill*         0x0000000020006d2d        0x3 
 .bss.error_angle_change
                0x0000000020006d30        0x4 /tmp/cc0IPsVg.ltrans8.ltrans.o
 .bss.subparams.lto_priv.128
                0x0000000020006d34      0x100 /tmp/cc0IPsVg.ltrans8.ltrans.o
                0x0000000020006d34                subparams.lto_priv.128
 .bss.error_count
                0x0000000020006e34        0x4 /tmp/cc0IPsVg.ltrans8.ltrans.o
 .bss.params_total.lto_priv.126
                0x0000000020006e38        0x1 /tmp/cc0IPsVg.ltrans8.ltrans.o
                0x0000000020006e38                params_total.lto_priv.126
 .bss.safe      0x0000000020006e39        0x1 /tmp/cc0IPsVg.ltrans8.ltrans.o
 *fill*         0x0000000020006e3a        0x2 
 .bss.last_error.8875
                0x0000000020006e3c        0x4 /tmp/cc0IPsVg.ltrans8.ltrans.o
 .bss.ep2instate
                0x0000000020006e40       0x10 /tmp/cc0IPsVg.ltrans8.ltrans.o
 .bss.set_speed
                0x0000000020006e50        0x2 /tmp/cc0IPsVg.ltrans8.ltrans.o
 *fill*         0x0000000020006e52        0x2 
 .bss.last_error.8869
                0x0000000020006e54        0x4 /tmp/cc0IPsVg.ltrans8.ltrans.o
 .bss.tempPID1  0x0000000020006e58       0x18 /tmp/cc0IPsVg.ltrans8.ltrans.o
                0x0000000020006e58                tempPID1
 .bss.param_name.lto_priv.130
                0x0000000020006e70       0x80 /tmp/cc0IPsVg.ltrans8.ltrans.o
                0x0000000020006e70                param_name.lto_priv.130
 .bss.ep1outstate
                0x0000000020006ef0       0x10 /tmp/cc0IPsVg.ltrans8.ltrans.o
 .bss.measured_speed_fuck
                0x0000000020006f00        0x2 /tmp/cc0IPsVg.ltrans8.ltrans.o
 *fill*         0x0000000020006f02        0x2 
 .bss.ep1instate
                0x0000000020006f04       0x10 /tmp/cc0IPsVg.ltrans8.ltrans.o
 .bss.speed_sp.lto_priv.119
                0x0000000020006f14        0x2 /tmp/cc0IPsVg.ltrans8.ltrans.o
 *fill*         0x0000000020006f16        0x2 
 .bss.params.lto_priv.129
                0x0000000020006f18       0x80 /tmp/cc0IPsVg.ltrans8.ltrans.o
                0x0000000020006f18                params.lto_priv.129
 .bss.current_error.8870
                0x0000000020006f98        0x4 /tmp/cc0IPsVg.ltrans8.ltrans.o
 .bss.imuRXData
                0x0000000020006f9c        0xe /tmp/cc0IPsVg.ltrans10.ltrans.o
 *fill*         0x0000000020006faa        0x2 
 .bss.imuData   0x0000000020006fac        0xe /tmp/cc0IPsVg.ltrans10.ltrans.o
 *fill*         0x0000000020006fba        0x2 
 .bss._speed_count_buffer
                0x0000000020006fbc       0x64 /tmp/cc0IPsVg.ltrans11.ltrans.o
 .bss._speed_buffer
                0x0000000020007020       0xc8 /tmp/cc0IPsVg.ltrans11.ltrans.o
 .bss.lock_state
                0x00000000200070e8        0x1 /tmp/cc0IPsVg.ltrans11.ltrans.o
                0x00000000200070e8                lock_state
 *fill*         0x00000000200070e9        0x3 
 .bss._speed_count
                0x00000000200070ec        0x8 /tmp/cc0IPsVg.ltrans11.ltrans.o
 .bss.rxbuf     0x00000000200070f4       0x12 /tmp/cc0IPsVg.ltrans11.ltrans.o
 *fill*         0x0000000020007106        0x2 
 .bss.uart_dbus_thread_handler.lto_priv.153
                0x0000000020007108        0x4 /tmp/cc0IPsVg.ltrans11.ltrans.o
                0x0000000020007108                uart_dbus_thread_handler.lto_priv.153
 .bss._count_sum
                0x000000002000710c        0x2 /tmp/cc0IPsVg.ltrans11.ltrans.o
 *fill*         0x000000002000710e        0x2 
 .bss.update_time
                0x0000000020007110        0x4 /tmp/cc0IPsVg.ltrans11.ltrans.o
 .bss.gimbal_thread_handler
                0x0000000020007114        0x4 /tmp/cc0IPsVg.ltrans12.ltrans.o
 .bss.u         0x0000000020007118      0x200 /tmp/cc0IPsVg.ltrans13.ltrans.o
 .bss.ch        0x0000000020007318      0x660 /tmp/cc0IPsVg.ltrans14.ltrans.o
                0x0000000020007318                ch
 .bss.CAND1     0x0000000020007978       0x30 /tmp/cc0IPsVg.ltrans14.ltrans.o
                0x0000000020007978                CAND1
 .bss.PWMD3     0x00000000200079a8       0x1c /tmp/cc0IPsVg.ltrans14.ltrans.o
                0x00000000200079a8                PWMD3
 *(COMMON)
                0x00000000200079c4                . = ALIGN (0x4)
                0x00000000200079c4                _bss_end = .
                [!provide]                        PROVIDE (end, .)

.ram0_init      0x00000000200079c4        0x0 load address 0x000000000800fc14
                0x00000000200079c4                . = ALIGN (0x4)
                0x000000000800fc14                __ram0_init_text__ = LOADADDR (.ram0_init)
                0x00000000200079c4                __ram0_init__ = .
 *(.ram0_init)
 *(.ram0_init.*)
                0x00000000200079c4                . = ALIGN (0x4)

.ram0           0x00000000200079c4        0x0 load address 0x000000000800fc14
                0x00000000200079c4                . = ALIGN (0x4)
                0x00000000200079c4                __ram0_clear__ = .
 *(.ram0_clear)
 *(.ram0_clear.*)
                0x00000000200079c4                . = ALIGN (0x4)
                0x00000000200079c4                __ram0_noinit__ = .
 *(.ram0)
 *(.ram0.*)
                0x00000000200079c4                . = ALIGN (0x4)
                0x00000000200079c4                __ram0_free__ = .

.ram1_init      0x0000000020000000        0x0 load address 0x000000000800fc14
                0x0000000020000000                . = ALIGN (0x4)
                0x000000000800fc14                __ram1_init_text__ = LOADADDR (.ram1_init)
                0x0000000020000000                __ram1_init__ = .
 *(.ram1_init)
 *(.ram1_init.*)
                0x0000000020000000                . = ALIGN (0x4)

.ram1           0x0000000020000000        0x0 load address 0x000000000800fc14
                0x0000000020000000                . = ALIGN (0x4)
                0x0000000020000000                __ram1_clear__ = .
 *(.ram1_clear)
 *(.ram1_clear.*)
                0x0000000020000000                . = ALIGN (0x4)
                0x0000000020000000                __ram1_noinit__ = .
 *(.ram1)
 *(.ram1.*)
                0x0000000020000000                . = ALIGN (0x4)
                0x0000000020000000                __ram1_free__ = .

.ram2_init      0x000000002001c000        0x0 load address 0x000000000800fc14
                0x000000002001c000                . = ALIGN (0x4)
                0x000000000800fc14                __ram2_init_text__ = LOADADDR (.ram2_init)
                0x000000002001c000                __ram2_init__ = .
 *(.ram2_init)
 *(.ram2_init.*)
                0x000000002001c000                . = ALIGN (0x4)

.ram2           0x000000002001c000        0x0 load address 0x000000000800fc14
                0x000000002001c000                . = ALIGN (0x4)
                0x000000002001c000                __ram2_clear__ = .
 *(.ram2_clear)
 *(.ram2_clear.*)
                0x000000002001c000                . = ALIGN (0x4)
                0x000000002001c000                __ram2_noinit__ = .
 *(.ram2)
 *(.ram2.*)
                0x000000002001c000                . = ALIGN (0x4)
                0x000000002001c000                __ram2_free__ = .

.ram3_init      0x0000000020020000        0x0 load address 0x000000000800fc14
                0x0000000020020000                . = ALIGN (0x4)
                0x000000000800fc14                __ram3_init_text__ = LOADADDR (.ram3_init)
                0x0000000020020000                __ram3_init__ = .
 *(.ram3_init)
 *(.ram3_init.*)
                0x0000000020020000                . = ALIGN (0x4)

.ram3           0x0000000020020000        0x0 load address 0x000000000800fc14
                0x0000000020020000                . = ALIGN (0x4)
                0x0000000020020000                __ram3_clear__ = .
 *(.ram3_clear)
 *(.ram3_clear.*)
                0x0000000020020000                . = ALIGN (0x4)
                0x0000000020020000                __ram3_noinit__ = .
 *(.ram3)
 *(.ram3.*)
                0x0000000020020000                . = ALIGN (0x4)
                0x0000000020020000                __ram3_free__ = .

.ram4_init      0x0000000010000000        0x0 load address 0x000000000800fc14
                0x0000000010000000                . = ALIGN (0x4)
                0x000000000800fc14                __ram4_init_text__ = LOADADDR (.ram4_init)
                0x0000000010000000                __ram4_init__ = .
 *(.ram4_init)
 *(.ram4_init.*)
                0x0000000010000000                . = ALIGN (0x4)

.ram4           0x0000000010000000        0x0 load address 0x000000000800fc14
                0x0000000010000000                . = ALIGN (0x4)
                0x0000000010000000                __ram4_clear__ = .
 *(.ram4_clear)
 *(.ram4_clear.*)
                0x0000000010000000                . = ALIGN (0x4)
                0x0000000010000000                __ram4_noinit__ = .
 *(.ram4)
 *(.ram4.*)
                0x0000000010000000                . = ALIGN (0x4)
                0x0000000010000000                __ram4_free__ = .

.ram5_init      0x0000000040024000        0x0 load address 0x000000000800fc14
                0x0000000040024000                . = ALIGN (0x4)
                0x000000000800fc14                __ram5_init_text__ = LOADADDR (.ram5_init)
                0x0000000040024000                __ram5_init__ = .
 *(.ram5_init)
 *(.ram5_init.*)
                0x0000000040024000                . = ALIGN (0x4)

.ram5           0x0000000040024000        0x0 load address 0x000000000800fc14
                0x0000000040024000                . = ALIGN (0x4)
                0x0000000040024000                __ram5_clear__ = .
 *(.ram5_clear)
 *(.ram5_clear.*)
                0x0000000040024000                . = ALIGN (0x4)
                0x0000000040024000                __ram5_noinit__ = .
 *(.ram5)
 *(.ram5.*)
                0x0000000040024000                . = ALIGN (0x4)
                0x0000000040024000                __ram5_free__ = .

.ram6_init      0x0000000000000000        0x0 load address 0x000000000800fc14
                0x0000000000000000                . = ALIGN (0x4)
                0x000000000800fc14                __ram6_init_text__ = LOADADDR (.ram6_init)
                0x0000000000000000                __ram6_init__ = .
 *(.ram6_init)
 *(.ram6_init.*)
                0x0000000000000000                . = ALIGN (0x4)

.ram6           0x0000000000000000        0x0 load address 0x000000000800fc14
                0x0000000000000000                . = ALIGN (0x4)
                0x0000000000000000                __ram6_clear__ = .
 *(.ram6_clear)
 *(.ram6_clear.*)
                0x0000000000000000                . = ALIGN (0x4)
                0x0000000000000000                __ram6_noinit__ = .
 *(.ram6)
 *(.ram6.*)
                0x0000000000000000                . = ALIGN (0x4)
                0x0000000000000000                __ram6_free__ = .

.ram7_init      0x0000000000000000        0x0 load address 0x000000000800fc14
                0x0000000000000000                . = ALIGN (0x4)
                0x000000000800fc14                __ram7_init_text__ = LOADADDR (.ram7_init)
                0x0000000000000000                __ram7_init__ = .
 *(.ram7_init)
 *(.ram7_init.*)
                0x0000000000000000                . = ALIGN (0x4)

.ram7           0x0000000000000000        0x0 load address 0x000000000800fc14
                0x0000000000000000                . = ALIGN (0x4)
                0x0000000000000000                __ram7_clear__ = .
 *(.ram7_clear)
 *(.ram7_clear.*)
                0x0000000000000000                . = ALIGN (0x4)
                0x0000000000000000                __ram7_noinit__ = .
 *(.ram7)
 *(.ram7.*)
                0x0000000000000000                . = ALIGN (0x4)
                0x0000000000000000                __ram7_free__ = .

.heap           0x00000000200079c4    0x2863c
                0x00000000200079c8                . = ALIGN (0x8)
 *fill*         0x00000000200079c4        0x4 
                0x00000000200079c8                __heap_base__ = .
                0x0000000020030000                . = (ORIGIN (HEAP_RAM) + LENGTH (HEAP_RAM))
 *fill*         0x00000000200079c8    0x28638 
                0x0000000020030000                __heap_end__ = .
                0x0000000000000400                __process_stack_size__ = 0x400
                0x0000000000000400                __main_stack_size__ = 0x400
LOAD /usr/lib/gcc/arm-none-eabi/4.9.3/../../../arm-none-eabi/lib/armv7e-m/fpu/libm.a
START GROUP
LOAD /usr/lib/gcc/arm-none-eabi/4.9.3/armv7e-m/fpu/libgcc.a
LOAD /usr/lib/gcc/arm-none-eabi/4.9.3/../../../arm-none-eabi/lib/armv7e-m/fpu/libg.a
LOAD /usr/lib/gcc/arm-none-eabi/4.9.3/../../../arm-none-eabi/lib/armv7e-m/fpu/libc.a
END GROUP
OUTPUT(build/ch.elf elf32-littlearm)

.ARM.attributes
                0x0000000000000000       0x35
 .ARM.attributes
                0x0000000000000000       0x25 build/obj/crt0_v7m.o
 .ARM.attributes
                0x0000000000000025       0x25 build/obj/chcoreasm_v7m.o
 .ARM.attributes
                0x000000000000004a       0x37 /tmp/cc0IPsVg.ltrans0.ltrans.o
 .ARM.attributes
                0x0000000000000081       0x37 /tmp/cc0IPsVg.ltrans1.ltrans.o
 .ARM.attributes
                0x00000000000000b8       0x37 /tmp/cc0IPsVg.ltrans2.ltrans.o
 .ARM.attributes
                0x00000000000000ef       0x37 /tmp/cc0IPsVg.ltrans3.ltrans.o
 .ARM.attributes
                0x0000000000000126       0x37 /tmp/cc0IPsVg.ltrans4.ltrans.o
 .ARM.attributes
                0x000000000000015d       0x37 /tmp/cc0IPsVg.ltrans5.ltrans.o
 .ARM.attributes
                0x0000000000000194       0x37 /tmp/cc0IPsVg.ltrans6.ltrans.o
 .ARM.attributes
                0x00000000000001cb       0x37 /tmp/cc0IPsVg.ltrans7.ltrans.o
 .ARM.attributes
                0x0000000000000202       0x37 /tmp/cc0IPsVg.ltrans8.ltrans.o
 .ARM.attributes
                0x0000000000000239       0x37 /tmp/cc0IPsVg.ltrans9.ltrans.o
 .ARM.attributes
                0x0000000000000270       0x37 /tmp/cc0IPsVg.ltrans10.ltrans.o
 .ARM.attributes
                0x00000000000002a7       0x37 /tmp/cc0IPsVg.ltrans11.ltrans.o
 .ARM.attributes
                0x00000000000002de       0x37 /tmp/cc0IPsVg.ltrans12.ltrans.o
 .ARM.attributes
                0x0000000000000315       0x37 /tmp/cc0IPsVg.ltrans13.ltrans.o
 .ARM.attributes
                0x000000000000034c       0x37 /tmp/cc0IPsVg.ltrans14.ltrans.o
 .ARM.attributes
                0x0000000000000383       0x34 /usr/lib/gcc/arm-none-eabi/4.9.3/../../../arm-none-eabi/lib/armv7e-m/fpu/libm.a(lib_a-sf_fpclassify.o)
 .ARM.attributes
                0x00000000000003b7       0x34 /usr/lib/gcc/arm-none-eabi/4.9.3/../../../arm-none-eabi/lib/armv7e-m/fpu/libm.a(lib_a-sf_cos.o)
 .ARM.attributes
                0x00000000000003eb       0x34 /usr/lib/gcc/arm-none-eabi/4.9.3/../../../arm-none-eabi/lib/armv7e-m/fpu/libm.a(lib_a-sf_sin.o)
 .ARM.attributes
                0x000000000000041f       0x34 /usr/lib/gcc/arm-none-eabi/4.9.3/../../../arm-none-eabi/lib/armv7e-m/fpu/libm.a(lib_a-sf_tan.o)
 .ARM.attributes
                0x0000000000000453       0x34 /usr/lib/gcc/arm-none-eabi/4.9.3/../../../arm-none-eabi/lib/armv7e-m/fpu/libm.a(lib_a-wf_asin.o)
 .ARM.attributes
                0x0000000000000487       0x34 /usr/lib/gcc/arm-none-eabi/4.9.3/../../../arm-none-eabi/lib/armv7e-m/fpu/libm.a(lib_a-wf_atan2.o)
 .ARM.attributes
                0x00000000000004bb       0x34 /usr/lib/gcc/arm-none-eabi/4.9.3/../../../arm-none-eabi/lib/armv7e-m/fpu/libm.a(lib_a-wf_sqrt.o)
 .ARM.attributes
                0x00000000000004ef       0x34 /usr/lib/gcc/arm-none-eabi/4.9.3/../../../arm-none-eabi/lib/armv7e-m/fpu/libm.a(lib_a-ef_asin.o)
 .ARM.attributes
                0x0000000000000523       0x34 /usr/lib/gcc/arm-none-eabi/4.9.3/../../../arm-none-eabi/lib/armv7e-m/fpu/libm.a(lib_a-ef_atan2.o)
 .ARM.attributes
                0x0000000000000557       0x34 /usr/lib/gcc/arm-none-eabi/4.9.3/../../../arm-none-eabi/lib/armv7e-m/fpu/libm.a(lib_a-ef_rem_pio2.o)
 .ARM.attributes
                0x000000000000058b       0x34 /usr/lib/gcc/arm-none-eabi/4.9.3/../../../arm-none-eabi/lib/armv7e-m/fpu/libm.a(lib_a-ef_sqrt.o)
 .ARM.attributes
                0x00000000000005bf       0x34 /usr/lib/gcc/arm-none-eabi/4.9.3/../../../arm-none-eabi/lib/armv7e-m/fpu/libm.a(lib_a-kf_cos.o)
 .ARM.attributes
                0x00000000000005f3       0x34 /usr/lib/gcc/arm-none-eabi/4.9.3/../../../arm-none-eabi/lib/armv7e-m/fpu/libm.a(lib_a-kf_rem_pio2.o)
 .ARM.attributes
                0x0000000000000627       0x34 /usr/lib/gcc/arm-none-eabi/4.9.3/../../../arm-none-eabi/lib/armv7e-m/fpu/libm.a(lib_a-kf_sin.o)
 .ARM.attributes
                0x000000000000065b       0x34 /usr/lib/gcc/arm-none-eabi/4.9.3/../../../arm-none-eabi/lib/armv7e-m/fpu/libm.a(lib_a-kf_tan.o)
 .ARM.attributes
                0x000000000000068f       0x34 /usr/lib/gcc/arm-none-eabi/4.9.3/../../../arm-none-eabi/lib/armv7e-m/fpu/libm.a(lib_a-s_lib_ver.o)
 .ARM.attributes
                0x00000000000006c3       0x34 /usr/lib/gcc/arm-none-eabi/4.9.3/../../../arm-none-eabi/lib/armv7e-m/fpu/libm.a(lib_a-s_matherr.o)
 .ARM.attributes
                0x00000000000006f7       0x34 /usr/lib/gcc/arm-none-eabi/4.9.3/../../../arm-none-eabi/lib/armv7e-m/fpu/libm.a(lib_a-s_nan.o)
 .ARM.attributes
                0x000000000000072b       0x34 /usr/lib/gcc/arm-none-eabi/4.9.3/../../../arm-none-eabi/lib/armv7e-m/fpu/libm.a(lib_a-sf_atan.o)
 .ARM.attributes
                0x000000000000075f       0x34 /usr/lib/gcc/arm-none-eabi/4.9.3/../../../arm-none-eabi/lib/armv7e-m/fpu/libm.a(lib_a-sf_fabs.o)
 .ARM.attributes
                0x0000000000000793       0x34 /usr/lib/gcc/arm-none-eabi/4.9.3/../../../arm-none-eabi/lib/armv7e-m/fpu/libm.a(lib_a-sf_floor.o)
 .ARM.attributes
                0x00000000000007c7       0x34 /usr/lib/gcc/arm-none-eabi/4.9.3/../../../arm-none-eabi/lib/armv7e-m/fpu/libm.a(lib_a-sf_scalbn.o)
 .ARM.attributes
                0x00000000000007fb       0x34 /usr/lib/gcc/arm-none-eabi/4.9.3/../../../arm-none-eabi/lib/armv7e-m/fpu/libm.a(lib_a-sf_copysign.o)
 .ARM.attributes
                0x000000000000082f       0x22 /usr/lib/gcc/arm-none-eabi/4.9.3/armv7e-m/fpu/libgcc.a(_arm_addsubdf3.o)
 .ARM.attributes
                0x0000000000000851       0x22 /usr/lib/gcc/arm-none-eabi/4.9.3/armv7e-m/fpu/libgcc.a(_arm_muldivdf3.o)
 .ARM.attributes
                0x0000000000000873       0x22 /usr/lib/gcc/arm-none-eabi/4.9.3/armv7e-m/fpu/libgcc.a(_arm_fixdfsi.o)
 .ARM.attributes
                0x0000000000000895       0x22 /usr/lib/gcc/arm-none-eabi/4.9.3/armv7e-m/fpu/libgcc.a(_arm_truncdfsf2.o)
 .ARM.attributes
                0x00000000000008b7       0x34 /usr/lib/gcc/arm-none-eabi/4.9.3/../../../arm-none-eabi/lib/armv7e-m/fpu/libg.a(lib_a-errno.o)
 .ARM.attributes
                0x00000000000008eb       0x34 /usr/lib/gcc/arm-none-eabi/4.9.3/../../../arm-none-eabi/lib/armv7e-m/fpu/libg.a(lib_a-impure.o)
 .ARM.attributes
                0x000000000000091f       0x20 /usr/lib/gcc/arm-none-eabi/4.9.3/../../../arm-none-eabi/lib/armv7e-m/fpu/libg.a(lib_a-memcpy.o)
 .ARM.attributes
                0x000000000000093f       0x34 /usr/lib/gcc/arm-none-eabi/4.9.3/../../../arm-none-eabi/lib/armv7e-m/fpu/libg.a(lib_a-memset.o)
 .ARM.attributes
                0x0000000000000973       0x20 /usr/lib/gcc/arm-none-eabi/4.9.3/../../../arm-none-eabi/lib/armv7e-m/fpu/libg.a(lib_a-strcmp.o)
 .ARM.attributes
                0x0000000000000993       0x34 /usr/lib/gcc/arm-none-eabi/4.9.3/../../../arm-none-eabi/lib/armv7e-m/fpu/libg.a(lib_a-strlen.o)
 .ARM.attributes
                0x00000000000009c7       0x34 /usr/lib/gcc/arm-none-eabi/4.9.3/../../../arm-none-eabi/lib/armv7e-m/fpu/libg.a(lib_a-strpbrk.o)
 .ARM.attributes
                0x00000000000009fb       0x34 /usr/lib/gcc/arm-none-eabi/4.9.3/../../../arm-none-eabi/lib/armv7e-m/fpu/libg.a(lib_a-strspn.o)

.comment        0x0000000000000000       0x70
 .comment       0x0000000000000000       0x38 /tmp/cc0IPsVg.ltrans0.ltrans.o
                                         0x39 (size before relaxing)
 .comment       0x0000000000000038       0x39 /tmp/cc0IPsVg.ltrans1.ltrans.o
 .comment       0x0000000000000038       0x39 /tmp/cc0IPsVg.ltrans2.ltrans.o
 .comment       0x0000000000000038       0x39 /tmp/cc0IPsVg.ltrans3.ltrans.o
 .comment       0x0000000000000038       0x39 /tmp/cc0IPsVg.ltrans4.ltrans.o
 .comment       0x0000000000000038       0x39 /tmp/cc0IPsVg.ltrans5.ltrans.o
 .comment       0x0000000000000038       0x39 /tmp/cc0IPsVg.ltrans6.ltrans.o
 .comment       0x0000000000000038       0x39 /tmp/cc0IPsVg.ltrans7.ltrans.o
 .comment       0x0000000000000038       0x39 /tmp/cc0IPsVg.ltrans8.ltrans.o
 .comment       0x0000000000000038       0x39 /tmp/cc0IPsVg.ltrans9.ltrans.o
 .comment       0x0000000000000038       0x39 /tmp/cc0IPsVg.ltrans10.ltrans.o
 .comment       0x0000000000000038       0x39 /tmp/cc0IPsVg.ltrans11.ltrans.o
 .comment       0x0000000000000038       0x39 /tmp/cc0IPsVg.ltrans12.ltrans.o
 .comment       0x0000000000000038       0x39 /tmp/cc0IPsVg.ltrans13.ltrans.o
 .comment       0x0000000000000038       0x39 /tmp/cc0IPsVg.ltrans14.ltrans.o
 .comment       0x0000000000000038       0x38 /usr/lib/gcc/arm-none-eabi/4.9.3/../../../arm-none-eabi/lib/armv7e-m/fpu/libm.a(lib_a-sf_fpclassify.o)
                                         0x39 (size before relaxing)
 .comment       0x0000000000000070       0x39 /usr/lib/gcc/arm-none-eabi/4.9.3/../../../arm-none-eabi/lib/armv7e-m/fpu/libm.a(lib_a-sf_cos.o)
 .comment       0x0000000000000070       0x39 /usr/lib/gcc/arm-none-eabi/4.9.3/../../../arm-none-eabi/lib/armv7e-m/fpu/libm.a(lib_a-sf_sin.o)
 .comment       0x0000000000000070       0x39 /usr/lib/gcc/arm-none-eabi/4.9.3/../../../arm-none-eabi/lib/armv7e-m/fpu/libm.a(lib_a-sf_tan.o)
 .comment       0x0000000000000070       0x39 /usr/lib/gcc/arm-none-eabi/4.9.3/../../../arm-none-eabi/lib/armv7e-m/fpu/libm.a(lib_a-wf_asin.o)
 .comment       0x0000000000000070       0x39 /usr/lib/gcc/arm-none-eabi/4.9.3/../../../arm-none-eabi/lib/armv7e-m/fpu/libm.a(lib_a-wf_atan2.o)
 .comment       0x0000000000000070       0x39 /usr/lib/gcc/arm-none-eabi/4.9.3/../../../arm-none-eabi/lib/armv7e-m/fpu/libm.a(lib_a-wf_sqrt.o)
 .comment       0x0000000000000070       0x39 /usr/lib/gcc/arm-none-eabi/4.9.3/../../../arm-none-eabi/lib/armv7e-m/fpu/libm.a(lib_a-ef_asin.o)
 .comment       0x0000000000000070       0x39 /usr/lib/gcc/arm-none-eabi/4.9.3/../../../arm-none-eabi/lib/armv7e-m/fpu/libm.a(lib_a-ef_atan2.o)
 .comment       0x0000000000000070       0x39 /usr/lib/gcc/arm-none-eabi/4.9.3/../../../arm-none-eabi/lib/armv7e-m/fpu/libm.a(lib_a-ef_rem_pio2.o)
 .comment       0x0000000000000070       0x39 /usr/lib/gcc/arm-none-eabi/4.9.3/../../../arm-none-eabi/lib/armv7e-m/fpu/libm.a(lib_a-ef_sqrt.o)
 .comment       0x0000000000000070       0x39 /usr/lib/gcc/arm-none-eabi/4.9.3/../../../arm-none-eabi/lib/armv7e-m/fpu/libm.a(lib_a-kf_cos.o)
 .comment       0x0000000000000070       0x39 /usr/lib/gcc/arm-none-eabi/4.9.3/../../../arm-none-eabi/lib/armv7e-m/fpu/libm.a(lib_a-kf_rem_pio2.o)
 .comment       0x0000000000000070       0x39 /usr/lib/gcc/arm-none-eabi/4.9.3/../../../arm-none-eabi/lib/armv7e-m/fpu/libm.a(lib_a-kf_sin.o)
 .comment       0x0000000000000070       0x39 /usr/lib/gcc/arm-none-eabi/4.9.3/../../../arm-none-eabi/lib/armv7e-m/fpu/libm.a(lib_a-kf_tan.o)
 .comment       0x0000000000000070       0x39 /usr/lib/gcc/arm-none-eabi/4.9.3/../../../arm-none-eabi/lib/armv7e-m/fpu/libm.a(lib_a-s_lib_ver.o)
 .comment       0x0000000000000070       0x39 /usr/lib/gcc/arm-none-eabi/4.9.3/../../../arm-none-eabi/lib/armv7e-m/fpu/libm.a(lib_a-s_matherr.o)
 .comment       0x0000000000000070       0x39 /usr/lib/gcc/arm-none-eabi/4.9.3/../../../arm-none-eabi/lib/armv7e-m/fpu/libm.a(lib_a-s_nan.o)
 .comment       0x0000000000000070       0x39 /usr/lib/gcc/arm-none-eabi/4.9.3/../../../arm-none-eabi/lib/armv7e-m/fpu/libm.a(lib_a-sf_atan.o)
 .comment       0x0000000000000070       0x39 /usr/lib/gcc/arm-none-eabi/4.9.3/../../../arm-none-eabi/lib/armv7e-m/fpu/libm.a(lib_a-sf_fabs.o)
 .comment       0x0000000000000070       0x39 /usr/lib/gcc/arm-none-eabi/4.9.3/../../../arm-none-eabi/lib/armv7e-m/fpu/libm.a(lib_a-sf_floor.o)
 .comment       0x0000000000000070       0x39 /usr/lib/gcc/arm-none-eabi/4.9.3/../../../arm-none-eabi/lib/armv7e-m/fpu/libm.a(lib_a-sf_scalbn.o)
 .comment       0x0000000000000070       0x39 /usr/lib/gcc/arm-none-eabi/4.9.3/../../../arm-none-eabi/lib/armv7e-m/fpu/libm.a(lib_a-sf_copysign.o)
 .comment       0x0000000000000070       0x39 /usr/lib/gcc/arm-none-eabi/4.9.3/../../../arm-none-eabi/lib/armv7e-m/fpu/libg.a(lib_a-errno.o)
 .comment       0x0000000000000070       0x39 /usr/lib/gcc/arm-none-eabi/4.9.3/../../../arm-none-eabi/lib/armv7e-m/fpu/libg.a(lib_a-impure.o)
 .comment       0x0000000000000070       0x39 /usr/lib/gcc/arm-none-eabi/4.9.3/../../../arm-none-eabi/lib/armv7e-m/fpu/libg.a(lib_a-memset.o)
 .comment       0x0000000000000070       0x39 /usr/lib/gcc/arm-none-eabi/4.9.3/../../../arm-none-eabi/lib/armv7e-m/fpu/libg.a(lib_a-strlen.o)
 .comment       0x0000000000000070       0x39 /usr/lib/gcc/arm-none-eabi/4.9.3/../../../arm-none-eabi/lib/armv7e-m/fpu/libg.a(lib_a-strpbrk.o)
 .comment       0x0000000000000070       0x39 /usr/lib/gcc/arm-none-eabi/4.9.3/../../../arm-none-eabi/lib/armv7e-m/fpu/libg.a(lib_a-strspn.o)

.debug_info     0x0000000000000000    0x35ae9
 .debug_info    0x0000000000000000     0x6cb4 /tmp/cc0IPsVg.ltrans0.ltrans.o
 .debug_info    0x0000000000006cb4     0x3902 /tmp/cc0IPsVg.ltrans1.ltrans.o
 .debug_info    0x000000000000a5b6     0x3475 /tmp/cc0IPsVg.ltrans2.ltrans.o
 .debug_info    0x000000000000da2b     0x37f7 /tmp/cc0IPsVg.ltrans3.ltrans.o
 .debug_info    0x0000000000011222     0x2bba /tmp/cc0IPsVg.ltrans4.ltrans.o
 .debug_info    0x0000000000013ddc     0x2a76 /tmp/cc0IPsVg.ltrans5.ltrans.o
 .debug_info    0x0000000000016852     0x4529 /tmp/cc0IPsVg.ltrans6.ltrans.o
 .debug_info    0x000000000001ad7b     0x32c5 /tmp/cc0IPsVg.ltrans7.ltrans.o
 .debug_info    0x000000000001e040     0x3f23 /tmp/cc0IPsVg.ltrans8.ltrans.o
 .debug_info    0x0000000000021f63     0x38ea /tmp/cc0IPsVg.ltrans9.ltrans.o
 .debug_info    0x000000000002584d     0x2bcb /tmp/cc0IPsVg.ltrans10.ltrans.o
 .debug_info    0x0000000000028418     0x1c66 /tmp/cc0IPsVg.ltrans11.ltrans.o
 .debug_info    0x000000000002a07e     0x1dd4 /tmp/cc0IPsVg.ltrans12.ltrans.o
 .debug_info    0x000000000002be52     0x3735 /tmp/cc0IPsVg.ltrans13.ltrans.o
 .debug_info    0x000000000002f587     0x20ac /tmp/cc0IPsVg.ltrans14.ltrans.o
 .debug_info    0x0000000000031633       0xc8 /usr/lib/gcc/arm-none-eabi/4.9.3/../../../arm-none-eabi/lib/armv7e-m/fpu/libm.a(lib_a-sf_fpclassify.o)
 .debug_info    0x00000000000316fb      0x223 /usr/lib/gcc/arm-none-eabi/4.9.3/../../../arm-none-eabi/lib/armv7e-m/fpu/libm.a(lib_a-sf_cos.o)
 .debug_info    0x000000000003191e      0x219 /usr/lib/gcc/arm-none-eabi/4.9.3/../../../arm-none-eabi/lib/armv7e-m/fpu/libm.a(lib_a-sf_sin.o)
 .debug_info    0x0000000000031b37      0x1d0 /usr/lib/gcc/arm-none-eabi/4.9.3/../../../arm-none-eabi/lib/armv7e-m/fpu/libm.a(lib_a-sf_tan.o)
 .debug_info    0x0000000000031d07      0x273 /usr/lib/gcc/arm-none-eabi/4.9.3/../../../arm-none-eabi/lib/armv7e-m/fpu/libm.a(lib_a-wf_asin.o)
 .debug_info    0x0000000000031f7a       0xf8 /usr/lib/gcc/arm-none-eabi/4.9.3/../../../arm-none-eabi/lib/armv7e-m/fpu/libm.a(lib_a-wf_atan2.o)
 .debug_info    0x0000000000032072      0x20f /usr/lib/gcc/arm-none-eabi/4.9.3/../../../arm-none-eabi/lib/armv7e-m/fpu/libm.a(lib_a-wf_sqrt.o)
 .debug_info    0x0000000000032281      0x2f6 /usr/lib/gcc/arm-none-eabi/4.9.3/../../../arm-none-eabi/lib/armv7e-m/fpu/libm.a(lib_a-ef_asin.o)
 .debug_info    0x0000000000032577      0x291 /usr/lib/gcc/arm-none-eabi/4.9.3/../../../arm-none-eabi/lib/armv7e-m/fpu/libm.a(lib_a-ef_atan2.o)
 .debug_info    0x0000000000032808      0x38b /usr/lib/gcc/arm-none-eabi/4.9.3/../../../arm-none-eabi/lib/armv7e-m/fpu/libm.a(lib_a-ef_rem_pio2.o)
 .debug_info    0x0000000000032b93      0x1c8 /usr/lib/gcc/arm-none-eabi/4.9.3/../../../arm-none-eabi/lib/armv7e-m/fpu/libm.a(lib_a-ef_sqrt.o)
 .debug_info    0x0000000000032d5b      0x1fd /usr/lib/gcc/arm-none-eabi/4.9.3/../../../arm-none-eabi/lib/armv7e-m/fpu/libm.a(lib_a-kf_cos.o)
 .debug_info    0x0000000000032f58      0x388 /usr/lib/gcc/arm-none-eabi/4.9.3/../../../arm-none-eabi/lib/armv7e-m/fpu/libm.a(lib_a-kf_rem_pio2.o)
 .debug_info    0x00000000000332e0      0x1d0 /usr/lib/gcc/arm-none-eabi/4.9.3/../../../arm-none-eabi/lib/armv7e-m/fpu/libm.a(lib_a-kf_sin.o)
 .debug_info    0x00000000000334b0      0x295 /usr/lib/gcc/arm-none-eabi/4.9.3/../../../arm-none-eabi/lib/armv7e-m/fpu/libm.a(lib_a-kf_tan.o)
 .debug_info    0x0000000000033745       0xbe /usr/lib/gcc/arm-none-eabi/4.9.3/../../../arm-none-eabi/lib/armv7e-m/fpu/libm.a(lib_a-s_lib_ver.o)
 .debug_info    0x0000000000033803      0x129 /usr/lib/gcc/arm-none-eabi/4.9.3/../../../arm-none-eabi/lib/armv7e-m/fpu/libm.a(lib_a-s_matherr.o)
 .debug_info    0x000000000003392c       0xd0 /usr/lib/gcc/arm-none-eabi/4.9.3/../../../arm-none-eabi/lib/armv7e-m/fpu/libm.a(lib_a-s_nan.o)
 .debug_info    0x00000000000339fc      0x23c /usr/lib/gcc/arm-none-eabi/4.9.3/../../../arm-none-eabi/lib/armv7e-m/fpu/libm.a(lib_a-sf_atan.o)
 .debug_info    0x0000000000033c38       0xcc /usr/lib/gcc/arm-none-eabi/4.9.3/../../../arm-none-eabi/lib/armv7e-m/fpu/libm.a(lib_a-sf_fabs.o)
 .debug_info    0x0000000000033d04      0x15c /usr/lib/gcc/arm-none-eabi/4.9.3/../../../arm-none-eabi/lib/armv7e-m/fpu/libm.a(lib_a-sf_floor.o)
 .debug_info    0x0000000000033e60      0x221 /usr/lib/gcc/arm-none-eabi/4.9.3/../../../arm-none-eabi/lib/armv7e-m/fpu/libm.a(lib_a-sf_scalbn.o)
 .debug_info    0x0000000000034081      0x12c /usr/lib/gcc/arm-none-eabi/4.9.3/../../../arm-none-eabi/lib/armv7e-m/fpu/libm.a(lib_a-sf_copysign.o)
 .debug_info    0x00000000000341ad       0xc2 /usr/lib/gcc/arm-none-eabi/4.9.3/armv7e-m/fpu/libgcc.a(_arm_addsubdf3.o)
 .debug_info    0x000000000003426f       0xc2 /usr/lib/gcc/arm-none-eabi/4.9.3/armv7e-m/fpu/libgcc.a(_arm_muldivdf3.o)
 .debug_info    0x0000000000034331       0xc2 /usr/lib/gcc/arm-none-eabi/4.9.3/armv7e-m/fpu/libgcc.a(_arm_fixdfsi.o)
 .debug_info    0x00000000000343f3       0xc2 /usr/lib/gcc/arm-none-eabi/4.9.3/armv7e-m/fpu/libgcc.a(_arm_truncdfsf2.o)
 .debug_info    0x00000000000344b5      0x889 /usr/lib/gcc/arm-none-eabi/4.9.3/../../../arm-none-eabi/lib/armv7e-m/fpu/libg.a(lib_a-errno.o)
 .debug_info    0x0000000000034d3e      0x894 /usr/lib/gcc/arm-none-eabi/4.9.3/../../../arm-none-eabi/lib/armv7e-m/fpu/libg.a(lib_a-impure.o)
 .debug_info    0x00000000000355d2       0xd5 /usr/lib/gcc/arm-none-eabi/4.9.3/../../../arm-none-eabi/lib/armv7e-m/fpu/libg.a(lib_a-memcpy.o)
 .debug_info    0x00000000000356a7      0x117 /usr/lib/gcc/arm-none-eabi/4.9.3/../../../arm-none-eabi/lib/armv7e-m/fpu/libg.a(lib_a-memset.o)
 .debug_info    0x00000000000357be       0xd4 /usr/lib/gcc/arm-none-eabi/4.9.3/../../../arm-none-eabi/lib/armv7e-m/fpu/libg.a(lib_a-strcmp.o)
 .debug_info    0x0000000000035892       0xb5 /usr/lib/gcc/arm-none-eabi/4.9.3/../../../arm-none-eabi/lib/armv7e-m/fpu/libg.a(lib_a-strlen.o)
 .debug_info    0x0000000000035947       0xc8 /usr/lib/gcc/arm-none-eabi/4.9.3/../../../arm-none-eabi/lib/armv7e-m/fpu/libg.a(lib_a-strpbrk.o)
 .debug_info    0x0000000000035a0f       0xda /usr/lib/gcc/arm-none-eabi/4.9.3/../../../arm-none-eabi/lib/armv7e-m/fpu/libg.a(lib_a-strspn.o)

.debug_abbrev   0x0000000000000000     0x6f2e
 .debug_abbrev  0x0000000000000000      0x5e7 /tmp/cc0IPsVg.ltrans0.ltrans.o
 .debug_abbrev  0x00000000000005e7      0x4f7 /tmp/cc0IPsVg.ltrans1.ltrans.o
 .debug_abbrev  0x0000000000000ade      0x617 /tmp/cc0IPsVg.ltrans2.ltrans.o
 .debug_abbrev  0x00000000000010f5      0x556 /tmp/cc0IPsVg.ltrans3.ltrans.o
 .debug_abbrev  0x000000000000164b      0x550 /tmp/cc0IPsVg.ltrans4.ltrans.o
 .debug_abbrev  0x0000000000001b9b      0x5b9 /tmp/cc0IPsVg.ltrans5.ltrans.o
 .debug_abbrev  0x0000000000002154      0x742 /tmp/cc0IPsVg.ltrans6.ltrans.o
 .debug_abbrev  0x0000000000002896      0x54d /tmp/cc0IPsVg.ltrans7.ltrans.o
 .debug_abbrev  0x0000000000002de3      0x62a /tmp/cc0IPsVg.ltrans8.ltrans.o
 .debug_abbrev  0x000000000000340d      0x5bb /tmp/cc0IPsVg.ltrans9.ltrans.o
 .debug_abbrev  0x00000000000039c8      0x5a4 /tmp/cc0IPsVg.ltrans10.ltrans.o
 .debug_abbrev  0x0000000000003f6c      0x478 /tmp/cc0IPsVg.ltrans11.ltrans.o
 .debug_abbrev  0x00000000000043e4      0x519 /tmp/cc0IPsVg.ltrans12.ltrans.o
 .debug_abbrev  0x00000000000048fd      0x61d /tmp/cc0IPsVg.ltrans13.ltrans.o
 .debug_abbrev  0x0000000000004f1a      0x487 /tmp/cc0IPsVg.ltrans14.ltrans.o
 .debug_abbrev  0x00000000000053a1       0x6f /usr/lib/gcc/arm-none-eabi/4.9.3/../../../arm-none-eabi/lib/armv7e-m/fpu/libm.a(lib_a-sf_fpclassify.o)
 .debug_abbrev  0x0000000000005410      0x145 /usr/lib/gcc/arm-none-eabi/4.9.3/../../../arm-none-eabi/lib/armv7e-m/fpu/libm.a(lib_a-sf_cos.o)
 .debug_abbrev  0x0000000000005555      0x149 /usr/lib/gcc/arm-none-eabi/4.9.3/../../../arm-none-eabi/lib/armv7e-m/fpu/libm.a(lib_a-sf_sin.o)
 .debug_abbrev  0x000000000000569e      0x149 /usr/lib/gcc/arm-none-eabi/4.9.3/../../../arm-none-eabi/lib/armv7e-m/fpu/libm.a(lib_a-sf_tan.o)
 .debug_abbrev  0x00000000000057e7      0x156 /usr/lib/gcc/arm-none-eabi/4.9.3/../../../arm-none-eabi/lib/armv7e-m/fpu/libm.a(lib_a-wf_asin.o)
 .debug_abbrev  0x000000000000593d       0x89 /usr/lib/gcc/arm-none-eabi/4.9.3/../../../arm-none-eabi/lib/armv7e-m/fpu/libm.a(lib_a-wf_atan2.o)
 .debug_abbrev  0x00000000000059c6      0x13a /usr/lib/gcc/arm-none-eabi/4.9.3/../../../arm-none-eabi/lib/armv7e-m/fpu/libm.a(lib_a-wf_sqrt.o)
 .debug_abbrev  0x0000000000005b00      0x13e /usr/lib/gcc/arm-none-eabi/4.9.3/../../../arm-none-eabi/lib/armv7e-m/fpu/libm.a(lib_a-ef_asin.o)
 .debug_abbrev  0x0000000000005c3e      0x141 /usr/lib/gcc/arm-none-eabi/4.9.3/../../../arm-none-eabi/lib/armv7e-m/fpu/libm.a(lib_a-ef_atan2.o)
 .debug_abbrev  0x0000000000005d7f      0x15d /usr/lib/gcc/arm-none-eabi/4.9.3/../../../arm-none-eabi/lib/armv7e-m/fpu/libm.a(lib_a-ef_rem_pio2.o)
 .debug_abbrev  0x0000000000005edc       0xed /usr/lib/gcc/arm-none-eabi/4.9.3/../../../arm-none-eabi/lib/armv7e-m/fpu/libm.a(lib_a-ef_sqrt.o)
 .debug_abbrev  0x0000000000005fc9       0xd1 /usr/lib/gcc/arm-none-eabi/4.9.3/../../../arm-none-eabi/lib/armv7e-m/fpu/libm.a(lib_a-kf_cos.o)
 .debug_abbrev  0x000000000000609a      0x14b /usr/lib/gcc/arm-none-eabi/4.9.3/../../../arm-none-eabi/lib/armv7e-m/fpu/libm.a(lib_a-kf_rem_pio2.o)
 .debug_abbrev  0x00000000000061e5       0xe4 /usr/lib/gcc/arm-none-eabi/4.9.3/../../../arm-none-eabi/lib/armv7e-m/fpu/libm.a(lib_a-kf_sin.o)
 .debug_abbrev  0x00000000000062c9      0x11e /usr/lib/gcc/arm-none-eabi/4.9.3/../../../arm-none-eabi/lib/armv7e-m/fpu/libm.a(lib_a-kf_tan.o)
 .debug_abbrev  0x00000000000063e7       0x4f /usr/lib/gcc/arm-none-eabi/4.9.3/../../../arm-none-eabi/lib/armv7e-m/fpu/libm.a(lib_a-s_lib_ver.o)
 .debug_abbrev  0x0000000000006436       0x9a /usr/lib/gcc/arm-none-eabi/4.9.3/../../../arm-none-eabi/lib/armv7e-m/fpu/libm.a(lib_a-s_matherr.o)
 .debug_abbrev  0x00000000000064d0       0x72 /usr/lib/gcc/arm-none-eabi/4.9.3/../../../arm-none-eabi/lib/armv7e-m/fpu/libm.a(lib_a-s_nan.o)
 .debug_abbrev  0x0000000000006542      0x12c /usr/lib/gcc/arm-none-eabi/4.9.3/../../../arm-none-eabi/lib/armv7e-m/fpu/libm.a(lib_a-sf_atan.o)
 .debug_abbrev  0x000000000000666e       0x6f /usr/lib/gcc/arm-none-eabi/4.9.3/../../../arm-none-eabi/lib/armv7e-m/fpu/libm.a(lib_a-sf_fabs.o)
 .debug_abbrev  0x00000000000066dd       0xc4 /usr/lib/gcc/arm-none-eabi/4.9.3/../../../arm-none-eabi/lib/armv7e-m/fpu/libm.a(lib_a-sf_floor.o)
 .debug_abbrev  0x00000000000067a1      0x11c /usr/lib/gcc/arm-none-eabi/4.9.3/../../../arm-none-eabi/lib/armv7e-m/fpu/libm.a(lib_a-sf_scalbn.o)
 .debug_abbrev  0x00000000000068bd       0xcc /usr/lib/gcc/arm-none-eabi/4.9.3/../../../arm-none-eabi/lib/armv7e-m/fpu/libm.a(lib_a-sf_copysign.o)
 .debug_abbrev  0x0000000000006989       0x14 /usr/lib/gcc/arm-none-eabi/4.9.3/armv7e-m/fpu/libgcc.a(_arm_addsubdf3.o)
 .debug_abbrev  0x000000000000699d       0x14 /usr/lib/gcc/arm-none-eabi/4.9.3/armv7e-m/fpu/libgcc.a(_arm_muldivdf3.o)
 .debug_abbrev  0x00000000000069b1       0x14 /usr/lib/gcc/arm-none-eabi/4.9.3/armv7e-m/fpu/libgcc.a(_arm_fixdfsi.o)
 .debug_abbrev  0x00000000000069c5       0x14 /usr/lib/gcc/arm-none-eabi/4.9.3/armv7e-m/fpu/libgcc.a(_arm_truncdfsf2.o)
 .debug_abbrev  0x00000000000069d9      0x18f /usr/lib/gcc/arm-none-eabi/4.9.3/../../../arm-none-eabi/lib/armv7e-m/fpu/libg.a(lib_a-errno.o)
 .debug_abbrev  0x0000000000006b68      0x180 /usr/lib/gcc/arm-none-eabi/4.9.3/../../../arm-none-eabi/lib/armv7e-m/fpu/libg.a(lib_a-impure.o)
 .debug_abbrev  0x0000000000006ce8       0x14 /usr/lib/gcc/arm-none-eabi/4.9.3/../../../arm-none-eabi/lib/armv7e-m/fpu/libg.a(lib_a-memcpy.o)
 .debug_abbrev  0x0000000000006cfc       0x9f /usr/lib/gcc/arm-none-eabi/4.9.3/../../../arm-none-eabi/lib/armv7e-m/fpu/libg.a(lib_a-memset.o)
 .debug_abbrev  0x0000000000006d9b       0x14 /usr/lib/gcc/arm-none-eabi/4.9.3/../../../arm-none-eabi/lib/armv7e-m/fpu/libg.a(lib_a-strcmp.o)
 .debug_abbrev  0x0000000000006daf       0x70 /usr/lib/gcc/arm-none-eabi/4.9.3/../../../arm-none-eabi/lib/armv7e-m/fpu/libg.a(lib_a-strlen.o)
 .debug_abbrev  0x0000000000006e1f       0x81 /usr/lib/gcc/arm-none-eabi/4.9.3/../../../arm-none-eabi/lib/armv7e-m/fpu/libg.a(lib_a-strpbrk.o)
 .debug_abbrev  0x0000000000006ea0       0x8e /usr/lib/gcc/arm-none-eabi/4.9.3/../../../arm-none-eabi/lib/armv7e-m/fpu/libg.a(lib_a-strspn.o)

.debug_loc      0x0000000000000000    0x1224f
 .debug_loc     0x0000000000000000     0x160f /tmp/cc0IPsVg.ltrans0.ltrans.o
 .debug_loc     0x000000000000160f      0xe77 /tmp/cc0IPsVg.ltrans1.ltrans.o
 .debug_loc     0x0000000000002486     0x1168 /tmp/cc0IPsVg.ltrans2.ltrans.o
 .debug_loc     0x00000000000035ee     0x10d2 /tmp/cc0IPsVg.ltrans3.ltrans.o
 .debug_loc     0x00000000000046c0     0x100c /tmp/cc0IPsVg.ltrans4.ltrans.o
 .debug_loc     0x00000000000056cc     0x1719 /tmp/cc0IPsVg.ltrans5.ltrans.o
 .debug_loc     0x0000000000006de5     0x12fd /tmp/cc0IPsVg.ltrans6.ltrans.o
 .debug_loc     0x00000000000080e2     0x1370 /tmp/cc0IPsVg.ltrans7.ltrans.o
 .debug_loc     0x0000000000009452      0xca5 /tmp/cc0IPsVg.ltrans8.ltrans.o
 .debug_loc     0x000000000000a0f7      0xca6 /tmp/cc0IPsVg.ltrans9.ltrans.o
 .debug_loc     0x000000000000ad9d      0x9c8 /tmp/cc0IPsVg.ltrans10.ltrans.o
 .debug_loc     0x000000000000b765      0x7d1 /tmp/cc0IPsVg.ltrans11.ltrans.o
 .debug_loc     0x000000000000bf36     0x14ca /tmp/cc0IPsVg.ltrans12.ltrans.o
 .debug_loc     0x000000000000d400     0x156f /tmp/cc0IPsVg.ltrans13.ltrans.o
 .debug_loc     0x000000000000e96f      0x6df /tmp/cc0IPsVg.ltrans14.ltrans.o
 .debug_loc     0x000000000000f04e      0x100 /usr/lib/gcc/arm-none-eabi/4.9.3/../../../arm-none-eabi/lib/armv7e-m/fpu/libm.a(lib_a-sf_cos.o)
 .debug_loc     0x000000000000f14e      0x100 /usr/lib/gcc/arm-none-eabi/4.9.3/../../../arm-none-eabi/lib/armv7e-m/fpu/libm.a(lib_a-sf_sin.o)
 .debug_loc     0x000000000000f24e       0xf5 /usr/lib/gcc/arm-none-eabi/4.9.3/../../../arm-none-eabi/lib/armv7e-m/fpu/libm.a(lib_a-sf_tan.o)
 .debug_loc     0x000000000000f343       0x64 /usr/lib/gcc/arm-none-eabi/4.9.3/../../../arm-none-eabi/lib/armv7e-m/fpu/libm.a(lib_a-wf_asin.o)
 .debug_loc     0x000000000000f3a7       0x48 /usr/lib/gcc/arm-none-eabi/4.9.3/../../../arm-none-eabi/lib/armv7e-m/fpu/libm.a(lib_a-wf_atan2.o)
 .debug_loc     0x000000000000f3ef       0x64 /usr/lib/gcc/arm-none-eabi/4.9.3/../../../arm-none-eabi/lib/armv7e-m/fpu/libm.a(lib_a-wf_sqrt.o)
 .debug_loc     0x000000000000f453      0x2ac /usr/lib/gcc/arm-none-eabi/4.9.3/../../../arm-none-eabi/lib/armv7e-m/fpu/libm.a(lib_a-ef_asin.o)
 .debug_loc     0x000000000000f6ff      0x708 /usr/lib/gcc/arm-none-eabi/4.9.3/../../../arm-none-eabi/lib/armv7e-m/fpu/libm.a(lib_a-ef_atan2.o)
 .debug_loc     0x000000000000fe07      0x5e0 /usr/lib/gcc/arm-none-eabi/4.9.3/../../../arm-none-eabi/lib/armv7e-m/fpu/libm.a(lib_a-ef_rem_pio2.o)
 .debug_loc     0x00000000000103e7      0x2af /usr/lib/gcc/arm-none-eabi/4.9.3/../../../arm-none-eabi/lib/armv7e-m/fpu/libm.a(lib_a-ef_sqrt.o)
 .debug_loc     0x0000000000010696      0x221 /usr/lib/gcc/arm-none-eabi/4.9.3/../../../arm-none-eabi/lib/armv7e-m/fpu/libm.a(lib_a-kf_cos.o)
 .debug_loc     0x00000000000108b7      0x878 /usr/lib/gcc/arm-none-eabi/4.9.3/../../../arm-none-eabi/lib/armv7e-m/fpu/libm.a(lib_a-kf_rem_pio2.o)
 .debug_loc     0x000000000001112f      0x166 /usr/lib/gcc/arm-none-eabi/4.9.3/../../../arm-none-eabi/lib/armv7e-m/fpu/libm.a(lib_a-kf_sin.o)
 .debug_loc     0x0000000000011295      0x35a /usr/lib/gcc/arm-none-eabi/4.9.3/../../../arm-none-eabi/lib/armv7e-m/fpu/libm.a(lib_a-kf_tan.o)
 .debug_loc     0x00000000000115ef       0x21 /usr/lib/gcc/arm-none-eabi/4.9.3/../../../arm-none-eabi/lib/armv7e-m/fpu/libm.a(lib_a-s_matherr.o)
 .debug_loc     0x0000000000011610      0x2b0 /usr/lib/gcc/arm-none-eabi/4.9.3/../../../arm-none-eabi/lib/armv7e-m/fpu/libm.a(lib_a-sf_atan.o)
 .debug_loc     0x00000000000118c0       0x3e /usr/lib/gcc/arm-none-eabi/4.9.3/../../../arm-none-eabi/lib/armv7e-m/fpu/libm.a(lib_a-sf_fabs.o)
 .debug_loc     0x00000000000118fe      0x276 /usr/lib/gcc/arm-none-eabi/4.9.3/../../../arm-none-eabi/lib/armv7e-m/fpu/libm.a(lib_a-sf_floor.o)
 .debug_loc     0x0000000000011b74      0x32f /usr/lib/gcc/arm-none-eabi/4.9.3/../../../arm-none-eabi/lib/armv7e-m/fpu/libm.a(lib_a-sf_scalbn.o)
 .debug_loc     0x0000000000011ea3       0x70 /usr/lib/gcc/arm-none-eabi/4.9.3/../../../arm-none-eabi/lib/armv7e-m/fpu/libm.a(lib_a-sf_copysign.o)
 .debug_loc     0x0000000000011f13      0x1ae /usr/lib/gcc/arm-none-eabi/4.9.3/../../../arm-none-eabi/lib/armv7e-m/fpu/libg.a(lib_a-memset.o)
 .debug_loc     0x00000000000120c1       0x21 /usr/lib/gcc/arm-none-eabi/4.9.3/../../../arm-none-eabi/lib/armv7e-m/fpu/libg.a(lib_a-strlen.o)
 .debug_loc     0x00000000000120e2       0xb7 /usr/lib/gcc/arm-none-eabi/4.9.3/../../../arm-none-eabi/lib/armv7e-m/fpu/libg.a(lib_a-strpbrk.o)
 .debug_loc     0x0000000000012199       0xb6 /usr/lib/gcc/arm-none-eabi/4.9.3/../../../arm-none-eabi/lib/armv7e-m/fpu/libg.a(lib_a-strspn.o)

.debug_aranges  0x0000000000000000      0xcb8
 .debug_aranges
                0x0000000000000000       0x20 /tmp/cc0IPsVg.ltrans0.ltrans.o
 .debug_aranges
                0x0000000000000020       0x20 /tmp/cc0IPsVg.ltrans1.ltrans.o
 .debug_aranges
                0x0000000000000040      0x1a0 /tmp/cc0IPsVg.ltrans2.ltrans.o
 .debug_aranges
                0x00000000000001e0       0x70 /tmp/cc0IPsVg.ltrans3.ltrans.o
 .debug_aranges
                0x0000000000000250       0x68 /tmp/cc0IPsVg.ltrans4.ltrans.o
 .debug_aranges
                0x00000000000002b8       0x58 /tmp/cc0IPsVg.ltrans5.ltrans.o
 .debug_aranges
                0x0000000000000310      0x130 /tmp/cc0IPsVg.ltrans6.ltrans.o
 .debug_aranges
                0x0000000000000440       0xa8 /tmp/cc0IPsVg.ltrans7.ltrans.o
 .debug_aranges
                0x00000000000004e8       0x68 /tmp/cc0IPsVg.ltrans8.ltrans.o
 .debug_aranges
                0x0000000000000550      0x148 /tmp/cc0IPsVg.ltrans9.ltrans.o
 .debug_aranges
                0x0000000000000698       0x50 /tmp/cc0IPsVg.ltrans10.ltrans.o
 .debug_aranges
                0x00000000000006e8       0x30 /tmp/cc0IPsVg.ltrans11.ltrans.o
 .debug_aranges
                0x0000000000000718       0x50 /tmp/cc0IPsVg.ltrans12.ltrans.o
 .debug_aranges
                0x0000000000000768       0xb0 /tmp/cc0IPsVg.ltrans13.ltrans.o
 .debug_aranges
                0x0000000000000818       0x50 /tmp/cc0IPsVg.ltrans14.ltrans.o
 .debug_aranges
                0x0000000000000868       0x20 /usr/lib/gcc/arm-none-eabi/4.9.3/../../../arm-none-eabi/lib/armv7e-m/fpu/libm.a(lib_a-sf_fpclassify.o)
 .debug_aranges
                0x0000000000000888       0x20 /usr/lib/gcc/arm-none-eabi/4.9.3/../../../arm-none-eabi/lib/armv7e-m/fpu/libm.a(lib_a-sf_cos.o)
 .debug_aranges
                0x00000000000008a8       0x20 /usr/lib/gcc/arm-none-eabi/4.9.3/../../../arm-none-eabi/lib/armv7e-m/fpu/libm.a(lib_a-sf_sin.o)
 .debug_aranges
                0x00000000000008c8       0x20 /usr/lib/gcc/arm-none-eabi/4.9.3/../../../arm-none-eabi/lib/armv7e-m/fpu/libm.a(lib_a-sf_tan.o)
 .debug_aranges
                0x00000000000008e8       0x20 /usr/lib/gcc/arm-none-eabi/4.9.3/../../../arm-none-eabi/lib/armv7e-m/fpu/libm.a(lib_a-wf_asin.o)
 .debug_aranges
                0x0000000000000908       0x20 /usr/lib/gcc/arm-none-eabi/4.9.3/../../../arm-none-eabi/lib/armv7e-m/fpu/libm.a(lib_a-wf_atan2.o)
 .debug_aranges
                0x0000000000000928       0x20 /usr/lib/gcc/arm-none-eabi/4.9.3/../../../arm-none-eabi/lib/armv7e-m/fpu/libm.a(lib_a-wf_sqrt.o)
 .debug_aranges
                0x0000000000000948       0x20 /usr/lib/gcc/arm-none-eabi/4.9.3/../../../arm-none-eabi/lib/armv7e-m/fpu/libm.a(lib_a-ef_asin.o)
 .debug_aranges
                0x0000000000000968       0x20 /usr/lib/gcc/arm-none-eabi/4.9.3/../../../arm-none-eabi/lib/armv7e-m/fpu/libm.a(lib_a-ef_atan2.o)
 .debug_aranges
                0x0000000000000988       0x20 /usr/lib/gcc/arm-none-eabi/4.9.3/../../../arm-none-eabi/lib/armv7e-m/fpu/libm.a(lib_a-ef_rem_pio2.o)
 .debug_aranges
                0x00000000000009a8       0x20 /usr/lib/gcc/arm-none-eabi/4.9.3/../../../arm-none-eabi/lib/armv7e-m/fpu/libm.a(lib_a-ef_sqrt.o)
 .debug_aranges
                0x00000000000009c8       0x20 /usr/lib/gcc/arm-none-eabi/4.9.3/../../../arm-none-eabi/lib/armv7e-m/fpu/libm.a(lib_a-kf_cos.o)
 .debug_aranges
                0x00000000000009e8       0x20 /usr/lib/gcc/arm-none-eabi/4.9.3/../../../arm-none-eabi/lib/armv7e-m/fpu/libm.a(lib_a-kf_rem_pio2.o)
 .debug_aranges
                0x0000000000000a08       0x20 /usr/lib/gcc/arm-none-eabi/4.9.3/../../../arm-none-eabi/lib/armv7e-m/fpu/libm.a(lib_a-kf_sin.o)
 .debug_aranges
                0x0000000000000a28       0x20 /usr/lib/gcc/arm-none-eabi/4.9.3/../../../arm-none-eabi/lib/armv7e-m/fpu/libm.a(lib_a-kf_tan.o)
 .debug_aranges
                0x0000000000000a48       0x18 /usr/lib/gcc/arm-none-eabi/4.9.3/../../../arm-none-eabi/lib/armv7e-m/fpu/libm.a(lib_a-s_lib_ver.o)
 .debug_aranges
                0x0000000000000a60       0x20 /usr/lib/gcc/arm-none-eabi/4.9.3/../../../arm-none-eabi/lib/armv7e-m/fpu/libm.a(lib_a-s_matherr.o)
 .debug_aranges
                0x0000000000000a80       0x20 /usr/lib/gcc/arm-none-eabi/4.9.3/../../../arm-none-eabi/lib/armv7e-m/fpu/libm.a(lib_a-s_nan.o)
 .debug_aranges
                0x0000000000000aa0       0x20 /usr/lib/gcc/arm-none-eabi/4.9.3/../../../arm-none-eabi/lib/armv7e-m/fpu/libm.a(lib_a-sf_atan.o)
 .debug_aranges
                0x0000000000000ac0       0x20 /usr/lib/gcc/arm-none-eabi/4.9.3/../../../arm-none-eabi/lib/armv7e-m/fpu/libm.a(lib_a-sf_fabs.o)
 .debug_aranges
                0x0000000000000ae0       0x20 /usr/lib/gcc/arm-none-eabi/4.9.3/../../../arm-none-eabi/lib/armv7e-m/fpu/libm.a(lib_a-sf_floor.o)
 .debug_aranges
                0x0000000000000b00       0x20 /usr/lib/gcc/arm-none-eabi/4.9.3/../../../arm-none-eabi/lib/armv7e-m/fpu/libm.a(lib_a-sf_scalbn.o)
 .debug_aranges
                0x0000000000000b20       0x20 /usr/lib/gcc/arm-none-eabi/4.9.3/../../../arm-none-eabi/lib/armv7e-m/fpu/libm.a(lib_a-sf_copysign.o)
 .debug_aranges
                0x0000000000000b40       0x20 /usr/lib/gcc/arm-none-eabi/4.9.3/armv7e-m/fpu/libgcc.a(_arm_addsubdf3.o)
 .debug_aranges
                0x0000000000000b60       0x20 /usr/lib/gcc/arm-none-eabi/4.9.3/armv7e-m/fpu/libgcc.a(_arm_muldivdf3.o)
 .debug_aranges
                0x0000000000000b80       0x20 /usr/lib/gcc/arm-none-eabi/4.9.3/armv7e-m/fpu/libgcc.a(_arm_fixdfsi.o)
 .debug_aranges
                0x0000000000000ba0       0x20 /usr/lib/gcc/arm-none-eabi/4.9.3/armv7e-m/fpu/libgcc.a(_arm_truncdfsf2.o)
 .debug_aranges
                0x0000000000000bc0       0x20 /usr/lib/gcc/arm-none-eabi/4.9.3/../../../arm-none-eabi/lib/armv7e-m/fpu/libg.a(lib_a-errno.o)
 .debug_aranges
                0x0000000000000be0       0x18 /usr/lib/gcc/arm-none-eabi/4.9.3/../../../arm-none-eabi/lib/armv7e-m/fpu/libg.a(lib_a-impure.o)
 .debug_aranges
                0x0000000000000bf8       0x20 /usr/lib/gcc/arm-none-eabi/4.9.3/../../../arm-none-eabi/lib/armv7e-m/fpu/libg.a(lib_a-memcpy.o)
 .debug_aranges
                0x0000000000000c18       0x20 /usr/lib/gcc/arm-none-eabi/4.9.3/../../../arm-none-eabi/lib/armv7e-m/fpu/libg.a(lib_a-memset.o)
 .debug_aranges
                0x0000000000000c38       0x20 /usr/lib/gcc/arm-none-eabi/4.9.3/../../../arm-none-eabi/lib/armv7e-m/fpu/libg.a(lib_a-strcmp.o)
 .debug_aranges
                0x0000000000000c58       0x20 /usr/lib/gcc/arm-none-eabi/4.9.3/../../../arm-none-eabi/lib/armv7e-m/fpu/libg.a(lib_a-strlen.o)
 .debug_aranges
                0x0000000000000c78       0x20 /usr/lib/gcc/arm-none-eabi/4.9.3/../../../arm-none-eabi/lib/armv7e-m/fpu/libg.a(lib_a-strpbrk.o)
 .debug_aranges
                0x0000000000000c98       0x20 /usr/lib/gcc/arm-none-eabi/4.9.3/../../../arm-none-eabi/lib/armv7e-m/fpu/libg.a(lib_a-strspn.o)

.debug_ranges   0x0000000000000000     0x5100
 .debug_ranges  0x0000000000000000     0x1160 /tmp/cc0IPsVg.ltrans0.ltrans.o
 .debug_ranges  0x0000000000001160      0x568 /tmp/cc0IPsVg.ltrans1.ltrans.o
 .debug_ranges  0x00000000000016c8      0x5f8 /tmp/cc0IPsVg.ltrans2.ltrans.o
 .debug_ranges  0x0000000000001cc0      0x3e8 /tmp/cc0IPsVg.ltrans3.ltrans.o
 .debug_ranges  0x00000000000020a8      0x408 /tmp/cc0IPsVg.ltrans4.ltrans.o
 .debug_ranges  0x00000000000024b0      0x4b0 /tmp/cc0IPsVg.ltrans5.ltrans.o
 .debug_ranges  0x0000000000002960      0x310 /tmp/cc0IPsVg.ltrans6.ltrans.o
 .debug_ranges  0x0000000000002c70      0x408 /tmp/cc0IPsVg.ltrans7.ltrans.o
 .debug_ranges  0x0000000000003078      0x9c0 /tmp/cc0IPsVg.ltrans8.ltrans.o
 .debug_ranges  0x0000000000003a38      0x278 /tmp/cc0IPsVg.ltrans9.ltrans.o
 .debug_ranges  0x0000000000003cb0      0x3d0 /tmp/cc0IPsVg.ltrans10.ltrans.o
 .debug_ranges  0x0000000000004080      0x408 /tmp/cc0IPsVg.ltrans11.ltrans.o
 .debug_ranges  0x0000000000004488      0x5e8 /tmp/cc0IPsVg.ltrans12.ltrans.o
 .debug_ranges  0x0000000000004a70      0x2b8 /tmp/cc0IPsVg.ltrans13.ltrans.o
 .debug_ranges  0x0000000000004d28      0x198 /tmp/cc0IPsVg.ltrans14.ltrans.o
 .debug_ranges  0x0000000000004ec0       0x10 /usr/lib/gcc/arm-none-eabi/4.9.3/../../../arm-none-eabi/lib/armv7e-m/fpu/libm.a(lib_a-sf_fpclassify.o)
 .debug_ranges  0x0000000000004ed0       0x10 /usr/lib/gcc/arm-none-eabi/4.9.3/../../../arm-none-eabi/lib/armv7e-m/fpu/libm.a(lib_a-sf_cos.o)
 .debug_ranges  0x0000000000004ee0       0x10 /usr/lib/gcc/arm-none-eabi/4.9.3/../../../arm-none-eabi/lib/armv7e-m/fpu/libm.a(lib_a-sf_sin.o)
 .debug_ranges  0x0000000000004ef0       0x10 /usr/lib/gcc/arm-none-eabi/4.9.3/../../../arm-none-eabi/lib/armv7e-m/fpu/libm.a(lib_a-sf_tan.o)
 .debug_ranges  0x0000000000004f00       0x10 /usr/lib/gcc/arm-none-eabi/4.9.3/../../../arm-none-eabi/lib/armv7e-m/fpu/libm.a(lib_a-wf_asin.o)
 .debug_ranges  0x0000000000004f10       0x10 /usr/lib/gcc/arm-none-eabi/4.9.3/../../../arm-none-eabi/lib/armv7e-m/fpu/libm.a(lib_a-wf_atan2.o)
 .debug_ranges  0x0000000000004f20       0x10 /usr/lib/gcc/arm-none-eabi/4.9.3/../../../arm-none-eabi/lib/armv7e-m/fpu/libm.a(lib_a-wf_sqrt.o)
 .debug_ranges  0x0000000000004f30       0x10 /usr/lib/gcc/arm-none-eabi/4.9.3/../../../arm-none-eabi/lib/armv7e-m/fpu/libm.a(lib_a-ef_asin.o)
 .debug_ranges  0x0000000000004f40       0x10 /usr/lib/gcc/arm-none-eabi/4.9.3/../../../arm-none-eabi/lib/armv7e-m/fpu/libm.a(lib_a-ef_atan2.o)
 .debug_ranges  0x0000000000004f50       0x30 /usr/lib/gcc/arm-none-eabi/4.9.3/../../../arm-none-eabi/lib/armv7e-m/fpu/libm.a(lib_a-ef_rem_pio2.o)
 .debug_ranges  0x0000000000004f80       0x10 /usr/lib/gcc/arm-none-eabi/4.9.3/../../../arm-none-eabi/lib/armv7e-m/fpu/libm.a(lib_a-ef_sqrt.o)
 .debug_ranges  0x0000000000004f90       0x10 /usr/lib/gcc/arm-none-eabi/4.9.3/../../../arm-none-eabi/lib/armv7e-m/fpu/libm.a(lib_a-kf_cos.o)
 .debug_ranges  0x0000000000004fa0       0x10 /usr/lib/gcc/arm-none-eabi/4.9.3/../../../arm-none-eabi/lib/armv7e-m/fpu/libm.a(lib_a-kf_rem_pio2.o)
 .debug_ranges  0x0000000000004fb0       0x10 /usr/lib/gcc/arm-none-eabi/4.9.3/../../../arm-none-eabi/lib/armv7e-m/fpu/libm.a(lib_a-kf_sin.o)
 .debug_ranges  0x0000000000004fc0       0x50 /usr/lib/gcc/arm-none-eabi/4.9.3/../../../arm-none-eabi/lib/armv7e-m/fpu/libm.a(lib_a-kf_tan.o)
 .debug_ranges  0x0000000000005010       0x10 /usr/lib/gcc/arm-none-eabi/4.9.3/../../../arm-none-eabi/lib/armv7e-m/fpu/libm.a(lib_a-s_matherr.o)
 .debug_ranges  0x0000000000005020       0x10 /usr/lib/gcc/arm-none-eabi/4.9.3/../../../arm-none-eabi/lib/armv7e-m/fpu/libm.a(lib_a-s_nan.o)
 .debug_ranges  0x0000000000005030       0x10 /usr/lib/gcc/arm-none-eabi/4.9.3/../../../arm-none-eabi/lib/armv7e-m/fpu/libm.a(lib_a-sf_atan.o)
 .debug_ranges  0x0000000000005040       0x10 /usr/lib/gcc/arm-none-eabi/4.9.3/../../../arm-none-eabi/lib/armv7e-m/fpu/libm.a(lib_a-sf_fabs.o)
 .debug_ranges  0x0000000000005050       0x28 /usr/lib/gcc/arm-none-eabi/4.9.3/../../../arm-none-eabi/lib/armv7e-m/fpu/libm.a(lib_a-sf_floor.o)
 .debug_ranges  0x0000000000005078       0x28 /usr/lib/gcc/arm-none-eabi/4.9.3/../../../arm-none-eabi/lib/armv7e-m/fpu/libm.a(lib_a-sf_scalbn.o)
 .debug_ranges  0x00000000000050a0       0x10 /usr/lib/gcc/arm-none-eabi/4.9.3/../../../arm-none-eabi/lib/armv7e-m/fpu/libm.a(lib_a-sf_copysign.o)
 .debug_ranges  0x00000000000050b0       0x10 /usr/lib/gcc/arm-none-eabi/4.9.3/../../../arm-none-eabi/lib/armv7e-m/fpu/libg.a(lib_a-errno.o)
 .debug_ranges  0x00000000000050c0       0x10 /usr/lib/gcc/arm-none-eabi/4.9.3/../../../arm-none-eabi/lib/armv7e-m/fpu/libg.a(lib_a-memset.o)
 .debug_ranges  0x00000000000050d0       0x10 /usr/lib/gcc/arm-none-eabi/4.9.3/../../../arm-none-eabi/lib/armv7e-m/fpu/libg.a(lib_a-strlen.o)
 .debug_ranges  0x00000000000050e0       0x10 /usr/lib/gcc/arm-none-eabi/4.9.3/../../../arm-none-eabi/lib/armv7e-m/fpu/libg.a(lib_a-strpbrk.o)
 .debug_ranges  0x00000000000050f0       0x10 /usr/lib/gcc/arm-none-eabi/4.9.3/../../../arm-none-eabi/lib/armv7e-m/fpu/libg.a(lib_a-strspn.o)

.debug_line     0x0000000000000000     0xc887
 .debug_line    0x0000000000000000     0x1227 /tmp/cc0IPsVg.ltrans0.ltrans.o
 .debug_line    0x0000000000001227      0xa03 /tmp/cc0IPsVg.ltrans1.ltrans.o
 .debug_line    0x0000000000001c2a      0xe10 /tmp/cc0IPsVg.ltrans2.ltrans.o
 .debug_line    0x0000000000002a3a      0xb0e /tmp/cc0IPsVg.ltrans3.ltrans.o
 .debug_line    0x0000000000003548      0x870 /tmp/cc0IPsVg.ltrans4.ltrans.o
 .debug_line    0x0000000000003db8      0x995 /tmp/cc0IPsVg.ltrans5.ltrans.o
 .debug_line    0x000000000000474d      0xc69 /tmp/cc0IPsVg.ltrans6.ltrans.o
 .debug_line    0x00000000000053b6      0x9a6 /tmp/cc0IPsVg.ltrans7.ltrans.o
 .debug_line    0x0000000000005d5c      0xc14 /tmp/cc0IPsVg.ltrans8.ltrans.o
 .debug_line    0x0000000000006970      0xb05 /tmp/cc0IPsVg.ltrans9.ltrans.o
 .debug_line    0x0000000000007475      0x928 /tmp/cc0IPsVg.ltrans10.ltrans.o
 .debug_line    0x0000000000007d9d      0x82e /tmp/cc0IPsVg.ltrans11.ltrans.o
 .debug_line    0x00000000000085cb      0x822 /tmp/cc0IPsVg.ltrans12.ltrans.o
 .debug_line    0x0000000000008ded      0x7da /tmp/cc0IPsVg.ltrans13.ltrans.o
 .debug_line    0x00000000000095c7      0x623 /tmp/cc0IPsVg.ltrans14.ltrans.o
 .debug_line    0x0000000000009bea      0x129 /usr/lib/gcc/arm-none-eabi/4.9.3/../../../arm-none-eabi/lib/armv7e-m/fpu/libm.a(lib_a-sf_fpclassify.o)
 .debug_line    0x0000000000009d13      0x17f /usr/lib/gcc/arm-none-eabi/4.9.3/../../../arm-none-eabi/lib/armv7e-m/fpu/libm.a(lib_a-sf_cos.o)
 .debug_line    0x0000000000009e92      0x17f /usr/lib/gcc/arm-none-eabi/4.9.3/../../../arm-none-eabi/lib/armv7e-m/fpu/libm.a(lib_a-sf_sin.o)
 .debug_line    0x000000000000a011      0x17a /usr/lib/gcc/arm-none-eabi/4.9.3/../../../arm-none-eabi/lib/armv7e-m/fpu/libm.a(lib_a-sf_tan.o)
 .debug_line    0x000000000000a18b      0x175 /usr/lib/gcc/arm-none-eabi/4.9.3/../../../arm-none-eabi/lib/armv7e-m/fpu/libm.a(lib_a-wf_asin.o)
 .debug_line    0x000000000000a300       0xf1 /usr/lib/gcc/arm-none-eabi/4.9.3/../../../arm-none-eabi/lib/armv7e-m/fpu/libm.a(lib_a-wf_atan2.o)
 .debug_line    0x000000000000a3f1      0x177 /usr/lib/gcc/arm-none-eabi/4.9.3/../../../arm-none-eabi/lib/armv7e-m/fpu/libm.a(lib_a-wf_sqrt.o)
 .debug_line    0x000000000000a568      0x1b8 /usr/lib/gcc/arm-none-eabi/4.9.3/../../../arm-none-eabi/lib/armv7e-m/fpu/libm.a(lib_a-ef_asin.o)
 .debug_line    0x000000000000a720      0x1df /usr/lib/gcc/arm-none-eabi/4.9.3/../../../arm-none-eabi/lib/armv7e-m/fpu/libm.a(lib_a-ef_atan2.o)
 .debug_line    0x000000000000a8ff      0x1fa /usr/lib/gcc/arm-none-eabi/4.9.3/../../../arm-none-eabi/lib/armv7e-m/fpu/libm.a(lib_a-ef_rem_pio2.o)
 .debug_line    0x000000000000aaf9      0x14a /usr/lib/gcc/arm-none-eabi/4.9.3/../../../arm-none-eabi/lib/armv7e-m/fpu/libm.a(lib_a-ef_sqrt.o)
 .debug_line    0x000000000000ac43      0x11b /usr/lib/gcc/arm-none-eabi/4.9.3/../../../arm-none-eabi/lib/armv7e-m/fpu/libm.a(lib_a-kf_cos.o)
 .debug_line    0x000000000000ad5e      0x35c /usr/lib/gcc/arm-none-eabi/4.9.3/../../../arm-none-eabi/lib/armv7e-m/fpu/libm.a(lib_a-kf_rem_pio2.o)
 .debug_line    0x000000000000b0ba      0x110 /usr/lib/gcc/arm-none-eabi/4.9.3/../../../arm-none-eabi/lib/armv7e-m/fpu/libm.a(lib_a-kf_sin.o)
 .debug_line    0x000000000000b1ca      0x1c0 /usr/lib/gcc/arm-none-eabi/4.9.3/../../../arm-none-eabi/lib/armv7e-m/fpu/libm.a(lib_a-kf_tan.o)
 .debug_line    0x000000000000b38a       0xa8 /usr/lib/gcc/arm-none-eabi/4.9.3/../../../arm-none-eabi/lib/armv7e-m/fpu/libm.a(lib_a-s_lib_ver.o)
 .debug_line    0x000000000000b432       0xb9 /usr/lib/gcc/arm-none-eabi/4.9.3/../../../arm-none-eabi/lib/armv7e-m/fpu/libm.a(lib_a-s_matherr.o)
 .debug_line    0x000000000000b4eb       0xb6 /usr/lib/gcc/arm-none-eabi/4.9.3/../../../arm-none-eabi/lib/armv7e-m/fpu/libm.a(lib_a-s_nan.o)
 .debug_line    0x000000000000b5a1      0x1a4 /usr/lib/gcc/arm-none-eabi/4.9.3/../../../arm-none-eabi/lib/armv7e-m/fpu/libm.a(lib_a-sf_atan.o)
 .debug_line    0x000000000000b745      0x11b /usr/lib/gcc/arm-none-eabi/4.9.3/../../../arm-none-eabi/lib/armv7e-m/fpu/libm.a(lib_a-sf_fabs.o)
 .debug_line    0x000000000000b860      0x1ae /usr/lib/gcc/arm-none-eabi/4.9.3/../../../arm-none-eabi/lib/armv7e-m/fpu/libm.a(lib_a-sf_floor.o)
 .debug_line    0x000000000000ba0e      0x15c /usr/lib/gcc/arm-none-eabi/4.9.3/../../../arm-none-eabi/lib/armv7e-m/fpu/libm.a(lib_a-sf_scalbn.o)
 .debug_line    0x000000000000bb6a      0x12e /usr/lib/gcc/arm-none-eabi/4.9.3/../../../arm-none-eabi/lib/armv7e-m/fpu/libm.a(lib_a-sf_copysign.o)
 .debug_line    0x000000000000bc98      0x179 /usr/lib/gcc/arm-none-eabi/4.9.3/armv7e-m/fpu/libgcc.a(_arm_addsubdf3.o)
 .debug_line    0x000000000000be11      0x19d /usr/lib/gcc/arm-none-eabi/4.9.3/armv7e-m/fpu/libgcc.a(_arm_muldivdf3.o)
 .debug_line    0x000000000000bfae       0x7a /usr/lib/gcc/arm-none-eabi/4.9.3/armv7e-m/fpu/libgcc.a(_arm_fixdfsi.o)
 .debug_line    0x000000000000c028       0x8e /usr/lib/gcc/arm-none-eabi/4.9.3/armv7e-m/fpu/libgcc.a(_arm_truncdfsf2.o)
 .debug_line    0x000000000000c0b6      0x10f /usr/lib/gcc/arm-none-eabi/4.9.3/../../../arm-none-eabi/lib/armv7e-m/fpu/libg.a(lib_a-errno.o)
 .debug_line    0x000000000000c1c5       0xf4 /usr/lib/gcc/arm-none-eabi/4.9.3/../../../arm-none-eabi/lib/armv7e-m/fpu/libg.a(lib_a-impure.o)
 .debug_line    0x000000000000c2b9       0xbb /usr/lib/gcc/arm-none-eabi/4.9.3/../../../arm-none-eabi/lib/armv7e-m/fpu/libg.a(lib_a-memcpy.o)
 .debug_line    0x000000000000c374      0x11c /usr/lib/gcc/arm-none-eabi/4.9.3/../../../arm-none-eabi/lib/armv7e-m/fpu/libg.a(lib_a-memset.o)
 .debug_line    0x000000000000c490      0x134 /usr/lib/gcc/arm-none-eabi/4.9.3/../../../arm-none-eabi/lib/armv7e-m/fpu/libg.a(lib_a-strcmp.o)
 .debug_line    0x000000000000c5c4       0xf5 /usr/lib/gcc/arm-none-eabi/4.9.3/../../../arm-none-eabi/lib/armv7e-m/fpu/libg.a(lib_a-strlen.o)
 .debug_line    0x000000000000c6b9       0xd1 /usr/lib/gcc/arm-none-eabi/4.9.3/../../../arm-none-eabi/lib/armv7e-m/fpu/libg.a(lib_a-strpbrk.o)
 .debug_line    0x000000000000c78a       0xfd /usr/lib/gcc/arm-none-eabi/4.9.3/../../../arm-none-eabi/lib/armv7e-m/fpu/libg.a(lib_a-strspn.o)

.debug_str      0x0000000000000000     0x6e0a
 .debug_str     0x0000000000000000     0x2759 /tmp/cc0IPsVg.ltrans0.ltrans.o
                                       0x29a0 (size before relaxing)
 .debug_str     0x0000000000002759      0x534 /tmp/cc0IPsVg.ltrans1.ltrans.o
                                       0x1058 (size before relaxing)
 .debug_str     0x0000000000002c8d      0x6d3 /tmp/cc0IPsVg.ltrans2.ltrans.o
                                        0xec7 (size before relaxing)
 .debug_str     0x0000000000003360      0x31c /tmp/cc0IPsVg.ltrans3.ltrans.o
                                       0x11e6 (size before relaxing)
 .debug_str     0x000000000000367c      0x497 /tmp/cc0IPsVg.ltrans4.ltrans.o
                                        0xdff (size before relaxing)
 .debug_str     0x0000000000003b13      0x597 /tmp/cc0IPsVg.ltrans5.ltrans.o
                                       0x1125 (size before relaxing)
 .debug_str     0x00000000000040aa      0xa1c /tmp/cc0IPsVg.ltrans6.ltrans.o
                                       0x19ae (size before relaxing)
 .debug_str     0x0000000000004ac6      0x1fb /tmp/cc0IPsVg.ltrans7.ltrans.o
                                       0x12c4 (size before relaxing)
 .debug_str     0x0000000000004cc1      0x62c /tmp/cc0IPsVg.ltrans8.ltrans.o
                                       0x1ab2 (size before relaxing)
 .debug_str     0x00000000000052ed      0x240 /tmp/cc0IPsVg.ltrans9.ltrans.o
                                       0x12c2 (size before relaxing)
 .debug_str     0x000000000000552d      0x252 /tmp/cc0IPsVg.ltrans10.ltrans.o
                                       0x11d3 (size before relaxing)
 .debug_str     0x000000000000577f      0x21b /tmp/cc0IPsVg.ltrans11.ltrans.o
                                        0xb99 (size before relaxing)
 .debug_str     0x000000000000599a      0x27b /tmp/cc0IPsVg.ltrans12.ltrans.o
                                        0xaf3 (size before relaxing)
 .debug_str     0x0000000000005c15      0x2ba /tmp/cc0IPsVg.ltrans13.ltrans.o
                                       0x1563 (size before relaxing)
 .debug_str     0x0000000000005ecf      0x309 /tmp/cc0IPsVg.ltrans14.ltrans.o
                                        0xdde (size before relaxing)
 .debug_str     0x00000000000061d8      0x1f0 /usr/lib/gcc/arm-none-eabi/4.9.3/../../../arm-none-eabi/lib/armv7e-m/fpu/libm.a(lib_a-sf_fpclassify.o)
                                        0x236 (size before relaxing)
 .debug_str     0x00000000000063c8       0xe2 /usr/lib/gcc/arm-none-eabi/4.9.3/../../../arm-none-eabi/lib/armv7e-m/fpu/libm.a(lib_a-sf_cos.o)
                                        0x282 (size before relaxing)
 .debug_str     0x00000000000064aa       0x2f /usr/lib/gcc/arm-none-eabi/4.9.3/../../../arm-none-eabi/lib/armv7e-m/fpu/libm.a(lib_a-sf_sin.o)
                                        0x282 (size before relaxing)
 .debug_str     0x00000000000064d9       0x3d /usr/lib/gcc/arm-none-eabi/4.9.3/../../../arm-none-eabi/lib/armv7e-m/fpu/libm.a(lib_a-sf_tan.o)
                                        0x274 (size before relaxing)
 .debug_str     0x0000000000006516       0xc2 /usr/lib/gcc/arm-none-eabi/4.9.3/../../../arm-none-eabi/lib/armv7e-m/fpu/libm.a(lib_a-wf_asin.o)
                                        0x2cd (size before relaxing)
 .debug_str     0x00000000000065d8       0x42 /usr/lib/gcc/arm-none-eabi/4.9.3/../../../arm-none-eabi/lib/armv7e-m/fpu/libm.a(lib_a-wf_atan2.o)
                                        0x22c (size before relaxing)
 .debug_str     0x000000000000661a       0x40 /usr/lib/gcc/arm-none-eabi/4.9.3/../../../arm-none-eabi/lib/armv7e-m/fpu/libm.a(lib_a-wf_sqrt.o)
                                        0x2c7 (size before relaxing)
 .debug_str     0x000000000000665a       0x52 /usr/lib/gcc/arm-none-eabi/4.9.3/../../../arm-none-eabi/lib/armv7e-m/fpu/libm.a(lib_a-ef_asin.o)
                                        0x296 (size before relaxing)
 .debug_str     0x00000000000066ac       0x50 /usr/lib/gcc/arm-none-eabi/4.9.3/../../../arm-none-eabi/lib/armv7e-m/fpu/libm.a(lib_a-ef_atan2.o)
                                        0x28f (size before relaxing)
 .debug_str     0x00000000000066fc       0xa0 /usr/lib/gcc/arm-none-eabi/4.9.3/../../../arm-none-eabi/lib/armv7e-m/fpu/libm.a(lib_a-ef_rem_pio2.o)
                                        0x2e2 (size before relaxing)
 .debug_str     0x000000000000679c       0x30 /usr/lib/gcc/arm-none-eabi/4.9.3/../../../arm-none-eabi/lib/armv7e-m/fpu/libm.a(lib_a-ef_sqrt.o)
                                        0x268 (size before relaxing)
 .debug_str     0x00000000000067cc       0x2f /usr/lib/gcc/arm-none-eabi/4.9.3/../../../arm-none-eabi/lib/armv7e-m/fpu/libm.a(lib_a-kf_cos.o)
                                        0x260 (size before relaxing)
 .debug_str     0x00000000000067fb       0x71 /usr/lib/gcc/arm-none-eabi/4.9.3/../../../arm-none-eabi/lib/armv7e-m/fpu/libm.a(lib_a-kf_rem_pio2.o)
                                        0x27b (size before relaxing)
 .debug_str     0x000000000000686c       0x2f /usr/lib/gcc/arm-none-eabi/4.9.3/../../../arm-none-eabi/lib/armv7e-m/fpu/libm.a(lib_a-kf_sin.o)
                                        0x260 (size before relaxing)
 .debug_str     0x000000000000689b       0x3b /usr/lib/gcc/arm-none-eabi/4.9.3/../../../arm-none-eabi/lib/armv7e-m/fpu/libm.a(lib_a-kf_tan.o)
                                        0x272 (size before relaxing)
 .debug_str     0x00000000000068d6       0x34 /usr/lib/gcc/arm-none-eabi/4.9.3/../../../arm-none-eabi/lib/armv7e-m/fpu/libm.a(lib_a-s_lib_ver.o)
                                        0x274 (size before relaxing)
 .debug_str     0x000000000000690a       0x34 /usr/lib/gcc/arm-none-eabi/4.9.3/../../../arm-none-eabi/lib/armv7e-m/fpu/libm.a(lib_a-s_matherr.o)
                                        0x246 (size before relaxing)
 .debug_str     0x000000000000693e       0x30 /usr/lib/gcc/arm-none-eabi/4.9.3/../../../arm-none-eabi/lib/armv7e-m/fpu/libm.a(lib_a-s_nan.o)
                                        0x21c (size before relaxing)
 .debug_str     0x000000000000696e       0x3e /usr/lib/gcc/arm-none-eabi/4.9.3/../../../arm-none-eabi/lib/armv7e-m/fpu/libm.a(lib_a-sf_atan.o)
                                        0x26d (size before relaxing)
 .debug_str     0x00000000000069ac       0x30 /usr/lib/gcc/arm-none-eabi/4.9.3/../../../arm-none-eabi/lib/armv7e-m/fpu/libm.a(lib_a-sf_fabs.o)
                                        0x224 (size before relaxing)
 .debug_str     0x00000000000069dc       0xaa /usr/lib/gcc/arm-none-eabi/4.9.3/../../../arm-none-eabi/lib/armv7e-m/fpu/libm.a(lib_a-sf_floor.o)
                                        0x26c (size before relaxing)
 .debug_str     0x0000000000006a86       0x4b /usr/lib/gcc/arm-none-eabi/4.9.3/../../../arm-none-eabi/lib/armv7e-m/fpu/libm.a(lib_a-sf_scalbn.o)
                                        0x282 (size before relaxing)
 .debug_str     0x0000000000006ad1       0x36 /usr/lib/gcc/arm-none-eabi/4.9.3/../../../arm-none-eabi/lib/armv7e-m/fpu/libm.a(lib_a-sf_copysign.o)
                                        0x256 (size before relaxing)
 .debug_str     0x0000000000006b07       0x98 /usr/lib/gcc/arm-none-eabi/4.9.3/../../../arm-none-eabi/lib/armv7e-m/fpu/libg.a(lib_a-errno.o)
                                        0x5c4 (size before relaxing)
 .debug_str     0x0000000000006b9f       0xb8 /usr/lib/gcc/arm-none-eabi/4.9.3/../../../arm-none-eabi/lib/armv7e-m/fpu/libg.a(lib_a-impure.o)
                                        0x5dc (size before relaxing)
 .debug_str     0x0000000000006c57       0xa8 /usr/lib/gcc/arm-none-eabi/4.9.3/../../../arm-none-eabi/lib/armv7e-m/fpu/libg.a(lib_a-memset.o)
                                        0x21f (size before relaxing)
 .debug_str     0x0000000000006cff       0xa8 /usr/lib/gcc/arm-none-eabi/4.9.3/../../../arm-none-eabi/lib/armv7e-m/fpu/libg.a(lib_a-strlen.o)
                                        0x218 (size before relaxing)
 .debug_str     0x0000000000006da7       0x32 /usr/lib/gcc/arm-none-eabi/4.9.3/../../../arm-none-eabi/lib/armv7e-m/fpu/libg.a(lib_a-strpbrk.o)
                                        0x206 (size before relaxing)
 .debug_str     0x0000000000006dd9       0x31 /usr/lib/gcc/arm-none-eabi/4.9.3/../../../arm-none-eabi/lib/armv7e-m/fpu/libg.a(lib_a-strspn.o)
                                        0x20b (size before relaxing)

.debug_frame    0x0000000000000000     0x21cc
 .debug_frame   0x0000000000000000       0x2c /tmp/cc0IPsVg.ltrans0.ltrans.o
 .debug_frame   0x000000000000002c       0x2c /tmp/cc0IPsVg.ltrans1.ltrans.o
 .debug_frame   0x0000000000000058      0x49c /tmp/cc0IPsVg.ltrans2.ltrans.o
 .debug_frame   0x00000000000004f4      0x1b8 /tmp/cc0IPsVg.ltrans3.ltrans.o
 .debug_frame   0x00000000000006ac      0x18c /tmp/cc0IPsVg.ltrans4.ltrans.o
 .debug_frame   0x0000000000000838      0x1b0 /tmp/cc0IPsVg.ltrans5.ltrans.o
 .debug_frame   0x00000000000009e8      0x3f4 /tmp/cc0IPsVg.ltrans6.ltrans.o
 .debug_frame   0x0000000000000ddc      0x28c /tmp/cc0IPsVg.ltrans7.ltrans.o
 .debug_frame   0x0000000000001068      0x1a4 /tmp/cc0IPsVg.ltrans8.ltrans.o
 .debug_frame   0x000000000000120c      0x470 /tmp/cc0IPsVg.ltrans9.ltrans.o
 .debug_frame   0x000000000000167c      0x114 /tmp/cc0IPsVg.ltrans10.ltrans.o
 .debug_frame   0x0000000000001790       0x90 /tmp/cc0IPsVg.ltrans11.ltrans.o
 .debug_frame   0x0000000000001820      0x160 /tmp/cc0IPsVg.ltrans12.ltrans.o
 .debug_frame   0x0000000000001980      0x1d4 /tmp/cc0IPsVg.ltrans13.ltrans.o
 .debug_frame   0x0000000000001b54       0xf0 /tmp/cc0IPsVg.ltrans14.ltrans.o
 .debug_frame   0x0000000000001c44       0x20 /usr/lib/gcc/arm-none-eabi/4.9.3/../../../arm-none-eabi/lib/armv7e-m/fpu/libm.a(lib_a-sf_fpclassify.o)
 .debug_frame   0x0000000000001c64       0x34 /usr/lib/gcc/arm-none-eabi/4.9.3/../../../arm-none-eabi/lib/armv7e-m/fpu/libm.a(lib_a-sf_cos.o)
 .debug_frame   0x0000000000001c98       0x34 /usr/lib/gcc/arm-none-eabi/4.9.3/../../../arm-none-eabi/lib/armv7e-m/fpu/libm.a(lib_a-sf_sin.o)
 .debug_frame   0x0000000000001ccc       0x38 /usr/lib/gcc/arm-none-eabi/4.9.3/../../../arm-none-eabi/lib/armv7e-m/fpu/libm.a(lib_a-sf_tan.o)
 .debug_frame   0x0000000000001d04       0x50 /usr/lib/gcc/arm-none-eabi/4.9.3/../../../arm-none-eabi/lib/armv7e-m/fpu/libm.a(lib_a-wf_asin.o)
 .debug_frame   0x0000000000001d54       0x20 /usr/lib/gcc/arm-none-eabi/4.9.3/../../../arm-none-eabi/lib/armv7e-m/fpu/libm.a(lib_a-wf_atan2.o)
 .debug_frame   0x0000000000001d74       0x50 /usr/lib/gcc/arm-none-eabi/4.9.3/../../../arm-none-eabi/lib/armv7e-m/fpu/libm.a(lib_a-wf_sqrt.o)
 .debug_frame   0x0000000000001dc4       0x70 /usr/lib/gcc/arm-none-eabi/4.9.3/../../../arm-none-eabi/lib/armv7e-m/fpu/libm.a(lib_a-ef_asin.o)
 .debug_frame   0x0000000000001e34       0x48 /usr/lib/gcc/arm-none-eabi/4.9.3/../../../arm-none-eabi/lib/armv7e-m/fpu/libm.a(lib_a-ef_atan2.o)
 .debug_frame   0x0000000000001e7c       0x3c /usr/lib/gcc/arm-none-eabi/4.9.3/../../../arm-none-eabi/lib/armv7e-m/fpu/libm.a(lib_a-ef_rem_pio2.o)
 .debug_frame   0x0000000000001eb8       0x3c /usr/lib/gcc/arm-none-eabi/4.9.3/../../../arm-none-eabi/lib/armv7e-m/fpu/libm.a(lib_a-ef_sqrt.o)
 .debug_frame   0x0000000000001ef4       0x20 /usr/lib/gcc/arm-none-eabi/4.9.3/../../../arm-none-eabi/lib/armv7e-m/fpu/libm.a(lib_a-kf_cos.o)
 .debug_frame   0x0000000000001f14       0x5c /usr/lib/gcc/arm-none-eabi/4.9.3/../../../arm-none-eabi/lib/armv7e-m/fpu/libm.a(lib_a-kf_rem_pio2.o)
 .debug_frame   0x0000000000001f70       0x20 /usr/lib/gcc/arm-none-eabi/4.9.3/../../../arm-none-eabi/lib/armv7e-m/fpu/libm.a(lib_a-kf_sin.o)
 .debug_frame   0x0000000000001f90       0x50 /usr/lib/gcc/arm-none-eabi/4.9.3/../../../arm-none-eabi/lib/armv7e-m/fpu/libm.a(lib_a-kf_tan.o)
 .debug_frame   0x0000000000001fe0       0x20 /usr/lib/gcc/arm-none-eabi/4.9.3/../../../arm-none-eabi/lib/armv7e-m/fpu/libm.a(lib_a-s_matherr.o)
 .debug_frame   0x0000000000002000       0x20 /usr/lib/gcc/arm-none-eabi/4.9.3/../../../arm-none-eabi/lib/armv7e-m/fpu/libm.a(lib_a-s_nan.o)
 .debug_frame   0x0000000000002020       0x2c /usr/lib/gcc/arm-none-eabi/4.9.3/../../../arm-none-eabi/lib/armv7e-m/fpu/libm.a(lib_a-sf_atan.o)
 .debug_frame   0x000000000000204c       0x20 /usr/lib/gcc/arm-none-eabi/4.9.3/../../../arm-none-eabi/lib/armv7e-m/fpu/libm.a(lib_a-sf_fabs.o)
 .debug_frame   0x000000000000206c       0x20 /usr/lib/gcc/arm-none-eabi/4.9.3/../../../arm-none-eabi/lib/armv7e-m/fpu/libm.a(lib_a-sf_floor.o)
 .debug_frame   0x000000000000208c       0x44 /usr/lib/gcc/arm-none-eabi/4.9.3/../../../arm-none-eabi/lib/armv7e-m/fpu/libm.a(lib_a-sf_scalbn.o)
 .debug_frame   0x00000000000020d0       0x20 /usr/lib/gcc/arm-none-eabi/4.9.3/../../../arm-none-eabi/lib/armv7e-m/fpu/libm.a(lib_a-sf_copysign.o)
 .debug_frame   0x00000000000020f0       0x20 /usr/lib/gcc/arm-none-eabi/4.9.3/../../../arm-none-eabi/lib/armv7e-m/fpu/libg.a(lib_a-errno.o)
 .debug_frame   0x0000000000002110       0x34 /usr/lib/gcc/arm-none-eabi/4.9.3/../../../arm-none-eabi/lib/armv7e-m/fpu/libg.a(lib_a-memset.o)
 .debug_frame   0x0000000000002144       0x20 /usr/lib/gcc/arm-none-eabi/4.9.3/../../../arm-none-eabi/lib/armv7e-m/fpu/libg.a(lib_a-strlen.o)
 .debug_frame   0x0000000000002164       0x34 /usr/lib/gcc/arm-none-eabi/4.9.3/../../../arm-none-eabi/lib/armv7e-m/fpu/libg.a(lib_a-strpbrk.o)
 .debug_frame   0x0000000000002198       0x34 /usr/lib/gcc/arm-none-eabi/4.9.3/../../../arm-none-eabi/lib/armv7e-m/fpu/libg.a(lib_a-strspn.o)

Cross Reference Table

Symbol                                            File
Attitude_thread(void*) [clone .lto_priv.83]       /tmp/cc0IPsVg.ltrans1.ltrans.o
                                                  /tmp/cc0IPsVg.ltrans0.ltrans.o
BusFault_Handler                                  /tmp/cc0IPsVg.ltrans2.ltrans.o
                                                  build/obj/vectors.o (symbol from plugin)
                                                  /tmp/cc0IPsVg.ltrans6.ltrans.o
CAND1                                             /tmp/cc0IPsVg.ltrans14.ltrans.o
                                                  build/obj/can_lld.o (symbol from plugin)
                                                  /tmp/cc0IPsVg.ltrans9.ltrans.o
                                                  /tmp/cc0IPsVg.ltrans0.ltrans.o
                                                  build/obj/exti.o (symbol from plugin)
                                                  build/obj/feeder.o (symbol from plugin)
                                                  build/obj/gimbal.o (symbol from plugin)
                                                  build/obj/canBusProcess.o (symbol from plugin)
CAND2                                             /tmp/cc0IPsVg.ltrans0.ltrans.o
                                                  build/obj/can_lld.o (symbol from plugin)
                                                  /tmp/cc0IPsVg.ltrans9.ltrans.o
                                                  build/obj/canBusProcess.o (symbol from plugin)
DebugMon_Handler                                  /tmp/cc0IPsVg.ltrans2.ltrans.o
                                                  build/obj/vectors.o (symbol from plugin)
                                                  /tmp/cc0IPsVg.ltrans6.ltrans.o
EXTD1                                             /tmp/cc0IPsVg.ltrans0.ltrans.o
                                                  build/obj/ext_lld.o (symbol from plugin)
                                                  /tmp/cc0IPsVg.ltrans9.ltrans.o
                                                  /tmp/cc0IPsVg.ltrans7.ltrans.o
                                                  build/obj/exti.o (symbol from plugin)
                                                  build/obj/ext_lld_isr.o (symbol from plugin)
HardFault_Handler                                 /tmp/cc0IPsVg.ltrans2.ltrans.o
                                                  build/obj/vectors.o (symbol from plugin)
                                                  /tmp/cc0IPsVg.ltrans6.ltrans.o
MemManage_Handler                                 /tmp/cc0IPsVg.ltrans2.ltrans.o
                                                  build/obj/vectors.o (symbol from plugin)
                                                  /tmp/cc0IPsVg.ltrans6.ltrans.o
NMI_Handler                                       /tmp/cc0IPsVg.ltrans2.ltrans.o
                                                  build/obj/vectors.o (symbol from plugin)
                                                  /tmp/cc0IPsVg.ltrans6.ltrans.o
PID_POS                                           build/obj/feeder.o (symbol from plugin)
PID_VEL                                           build/obj/feeder.o (symbol from plugin)
PWMD1                                             /tmp/cc0IPsVg.ltrans0.ltrans.o
                                                  build/obj/pwm_lld.o (symbol from plugin)
                                                  /tmp/cc0IPsVg.ltrans6.ltrans.o
PWMD12.lto_priv.120                               /tmp/cc0IPsVg.ltrans0.ltrans.o
                                                  /tmp/cc0IPsVg.ltrans8.ltrans.o
PWMD3                                             /tmp/cc0IPsVg.ltrans14.ltrans.o
                                                  build/obj/pwm_lld.o (symbol from plugin)
                                                  /tmp/cc0IPsVg.ltrans8.ltrans.o
                                                  /tmp/cc0IPsVg.ltrans6.ltrans.o
                                                  /tmp/cc0IPsVg.ltrans1.ltrans.o
                                                  /tmp/cc0IPsVg.ltrans0.ltrans.o
                                                  build/obj/imu_temp.o (symbol from plugin)
PWMD4                                             /tmp/cc0IPsVg.ltrans0.ltrans.o
                                                  build/obj/pwm_lld.o (symbol from plugin)
                                                  /tmp/cc0IPsVg.ltrans6.ltrans.o
PWMD8                                             /tmp/cc0IPsVg.ltrans0.ltrans.o
                                                  build/obj/pwm_lld.o (symbol from plugin)
                                                  /tmp/cc0IPsVg.ltrans6.ltrans.o
PendSV_Handler                                    /tmp/cc0IPsVg.ltrans2.ltrans.o
                                                  build/obj/vectors.o (symbol from plugin)
                                                  /tmp/cc0IPsVg.ltrans6.ltrans.o
RC_Ctl.lto_priv.144                               /tmp/cc0IPsVg.ltrans0.ltrans.o
                                                  /tmp/cc0IPsVg.ltrans11.ltrans.o
                                                  /tmp/cc0IPsVg.ltrans10.ltrans.o
RC_get                                            build/obj/dbus.o (symbol from plugin)
                                                  build/obj/feeder.o (symbol from plugin)
                                                  build/obj/shoot_pwm.o (symbol from plugin)
                                                  build/obj/gimbal.o (symbol from plugin)
                                                  build/obj/shellcfg.o (symbol from plugin)
RC_init                                           build/obj/dbus.o (symbol from plugin)
                                                  build/obj/main.o (symbol from plugin)
RC_reset.lto_priv.113                             /tmp/cc0IPsVg.ltrans10.ltrans.o
                                                  /tmp/cc0IPsVg.ltrans11.ltrans.o
                                                  /tmp/cc0IPsVg.ltrans0.ltrans.o
Reset_Handler                                     build/obj/crt0_v7m.o
                                                  /tmp/cc0IPsVg.ltrans6.ltrans.o
                                                  build/obj/vectors.o (symbol from plugin)
SDCD1                                             /tmp/cc0IPsVg.ltrans0.ltrans.o
                                                  build/obj/sdc_lld.o (symbol from plugin)
                                                  /tmp/cc0IPsVg.ltrans6.ltrans.o
                                                  build/obj/sdlog.o (symbol from plugin)
                                                  build/obj/fatfs_diskio.o (symbol from plugin)
SDU1                                              /tmp/cc0IPsVg.ltrans0.ltrans.o
                                                  build/obj/usbcfg.o (symbol from plugin)
                                                  /tmp/cc0IPsVg.ltrans8.ltrans.o
                                                  /tmp/cc0IPsVg.ltrans5.ltrans.o
                                                  build/obj/calibrate_sensor.o (symbol from plugin)
                                                  build/obj/shellcfg.o (symbol from plugin)
SPID4                                             /tmp/cc0IPsVg.ltrans0.ltrans.o
                                                  build/obj/spi_lld.o (symbol from plugin)
                                                  /tmp/cc0IPsVg.ltrans1.ltrans.o
SPID5                                             /tmp/cc0IPsVg.ltrans0.ltrans.o
                                                  build/obj/spi_lld.o (symbol from plugin)
                                                  /tmp/cc0IPsVg.ltrans1.ltrans.o
                                                  build/obj/main.o (symbol from plugin)
SVC_Handler                                       /tmp/cc0IPsVg.ltrans2.ltrans.o
                                                  build/obj/chcore_v7m.o (symbol from plugin)
                                                  build/obj/vectors.o (symbol from plugin)
                                                  /tmp/cc0IPsVg.ltrans6.ltrans.o
SysTick_Handler                                   /tmp/cc0IPsVg.ltrans2.ltrans.o
                                                  build/obj/vectors.o (symbol from plugin)
                                                  /tmp/cc0IPsVg.ltrans6.ltrans.o
SystemCoreClock                                   build/obj/hal_lld.o (symbol from plugin)
TPID_get                                          build/obj/imu_temp.o (symbol from plugin)
                                                  build/obj/shellcfg.o (symbol from plugin)
Temperature_thread.lto_priv.114                   /tmp/cc0IPsVg.ltrans8.ltrans.o
                                                  /tmp/cc0IPsVg.ltrans1.ltrans.o
UARTD1                                            /tmp/cc0IPsVg.ltrans0.ltrans.o
                                                  build/obj/uart_lld.o (symbol from plugin)
                                                  /tmp/cc0IPsVg.ltrans11.ltrans.o
                                                  /tmp/cc0IPsVg.ltrans6.ltrans.o
                                                  build/obj/dbus.o (symbol from plugin)
UARTD3                                            /tmp/cc0IPsVg.ltrans0.ltrans.o
                                                  build/obj/uart_lld.o (symbol from plugin)
UARTD4                                            /tmp/cc0IPsVg.ltrans0.ltrans.o
                                                  build/obj/uart_lld.o (symbol from plugin)
                                                  /tmp/cc0IPsVg.ltrans6.ltrans.o
UARTD6                                            /tmp/cc0IPsVg.ltrans0.ltrans.o
                                                  build/obj/uart_lld.o (symbol from plugin)
USBD1                                             /tmp/cc0IPsVg.ltrans0.ltrans.o
                                                  build/obj/usb_lld.o (symbol from plugin)
                                                  /tmp/cc0IPsVg.ltrans7.ltrans.o
                                                  build/obj/usbcfg.o (symbol from plugin)
USBD2                                             /tmp/cc0IPsVg.ltrans0.ltrans.o
                                                  build/obj/usb_lld.o (symbol from plugin)
                                                  /tmp/cc0IPsVg.ltrans7.ltrans.o
UsageFault_Handler                                /tmp/cc0IPsVg.ltrans2.ltrans.o
                                                  build/obj/vectors.o (symbol from plugin)
                                                  /tmp/cc0IPsVg.ltrans6.ltrans.o
Vector100                                         /tmp/cc0IPsVg.ltrans2.ltrans.o
                                                  build/obj/vectors.o (symbol from plugin)
                                                  /tmp/cc0IPsVg.ltrans6.ltrans.o
Vector104                                         build/obj/sdc_lld.o (symbol from plugin)
                                                  build/obj/vectors.o (symbol from plugin)
Vector108                                         /tmp/cc0IPsVg.ltrans2.ltrans.o
                                                  build/obj/vectors.o (symbol from plugin)
                                                  /tmp/cc0IPsVg.ltrans6.ltrans.o
Vector10C                                         /tmp/cc0IPsVg.ltrans2.ltrans.o
                                                  build/obj/vectors.o (symbol from plugin)
                                                  /tmp/cc0IPsVg.ltrans6.ltrans.o
Vector110                                         build/obj/uart_lld.o (symbol from plugin)
                                                  build/obj/vectors.o (symbol from plugin)
Vector114                                         /tmp/cc0IPsVg.ltrans2.ltrans.o
                                                  build/obj/vectors.o (symbol from plugin)
                                                  /tmp/cc0IPsVg.ltrans6.ltrans.o
Vector118                                         /tmp/cc0IPsVg.ltrans2.ltrans.o
                                                  build/obj/vectors.o (symbol from plugin)
                                                  /tmp/cc0IPsVg.ltrans6.ltrans.o
Vector11C                                         /tmp/cc0IPsVg.ltrans2.ltrans.o
                                                  build/obj/vectors.o (symbol from plugin)
                                                  /tmp/cc0IPsVg.ltrans6.ltrans.o
Vector120                                         /tmp/cc0IPsVg.ltrans9.ltrans.o
                                                  build/obj/stm32_dma.o (symbol from plugin)
                                                  build/obj/vectors.o (symbol from plugin)
                                                  /tmp/cc0IPsVg.ltrans6.ltrans.o
Vector124                                         /tmp/cc0IPsVg.ltrans9.ltrans.o
                                                  build/obj/stm32_dma.o (symbol from plugin)
                                                  build/obj/vectors.o (symbol from plugin)
                                                  /tmp/cc0IPsVg.ltrans6.ltrans.o
Vector128                                         /tmp/cc0IPsVg.ltrans9.ltrans.o
                                                  build/obj/stm32_dma.o (symbol from plugin)
                                                  build/obj/vectors.o (symbol from plugin)
                                                  /tmp/cc0IPsVg.ltrans6.ltrans.o
Vector12C                                         /tmp/cc0IPsVg.ltrans9.ltrans.o
                                                  build/obj/stm32_dma.o (symbol from plugin)
                                                  build/obj/vectors.o (symbol from plugin)
                                                  /tmp/cc0IPsVg.ltrans6.ltrans.o
Vector130                                         /tmp/cc0IPsVg.ltrans9.ltrans.o
                                                  build/obj/stm32_dma.o (symbol from plugin)
                                                  build/obj/vectors.o (symbol from plugin)
                                                  /tmp/cc0IPsVg.ltrans6.ltrans.o
Vector134                                         /tmp/cc0IPsVg.ltrans2.ltrans.o
                                                  build/obj/vectors.o (symbol from plugin)
                                                  /tmp/cc0IPsVg.ltrans6.ltrans.o
Vector138                                         /tmp/cc0IPsVg.ltrans7.ltrans.o
                                                  build/obj/ext_lld_isr.o (symbol from plugin)
                                                  build/obj/vectors.o (symbol from plugin)
                                                  /tmp/cc0IPsVg.ltrans6.ltrans.o
Vector13C                                         /tmp/cc0IPsVg.ltrans9.ltrans.o
                                                  build/obj/can_lld.o (symbol from plugin)
                                                  build/obj/vectors.o (symbol from plugin)
                                                  /tmp/cc0IPsVg.ltrans6.ltrans.o
Vector140                                         /tmp/cc0IPsVg.ltrans9.ltrans.o
                                                  build/obj/can_lld.o (symbol from plugin)
                                                  build/obj/vectors.o (symbol from plugin)
                                                  /tmp/cc0IPsVg.ltrans6.ltrans.o
Vector144                                         /tmp/cc0IPsVg.ltrans9.ltrans.o
                                                  build/obj/can_lld.o (symbol from plugin)
                                                  build/obj/vectors.o (symbol from plugin)
                                                  /tmp/cc0IPsVg.ltrans6.ltrans.o
Vector148                                         /tmp/cc0IPsVg.ltrans9.ltrans.o
                                                  build/obj/can_lld.o (symbol from plugin)
                                                  build/obj/vectors.o (symbol from plugin)
                                                  /tmp/cc0IPsVg.ltrans6.ltrans.o
Vector14C                                         /tmp/cc0IPsVg.ltrans7.ltrans.o
                                                  build/obj/usb_lld.o (symbol from plugin)
                                                  build/obj/vectors.o (symbol from plugin)
                                                  /tmp/cc0IPsVg.ltrans6.ltrans.o
Vector150                                         /tmp/cc0IPsVg.ltrans9.ltrans.o
                                                  build/obj/stm32_dma.o (symbol from plugin)
                                                  build/obj/vectors.o (symbol from plugin)
                                                  /tmp/cc0IPsVg.ltrans6.ltrans.o
Vector154                                         /tmp/cc0IPsVg.ltrans9.ltrans.o
                                                  build/obj/stm32_dma.o (symbol from plugin)
                                                  build/obj/vectors.o (symbol from plugin)
                                                  /tmp/cc0IPsVg.ltrans6.ltrans.o
Vector158                                         /tmp/cc0IPsVg.ltrans9.ltrans.o
                                                  build/obj/stm32_dma.o (symbol from plugin)
                                                  build/obj/vectors.o (symbol from plugin)
                                                  /tmp/cc0IPsVg.ltrans6.ltrans.o
Vector15C                                         /tmp/cc0IPsVg.ltrans2.ltrans.o
                                                  build/obj/vectors.o (symbol from plugin)
                                                  /tmp/cc0IPsVg.ltrans6.ltrans.o
Vector160                                         /tmp/cc0IPsVg.ltrans2.ltrans.o
                                                  build/obj/vectors.o (symbol from plugin)
                                                  /tmp/cc0IPsVg.ltrans6.ltrans.o
Vector164                                         /tmp/cc0IPsVg.ltrans2.ltrans.o
                                                  build/obj/vectors.o (symbol from plugin)
                                                  /tmp/cc0IPsVg.ltrans6.ltrans.o
Vector168                                         /tmp/cc0IPsVg.ltrans2.ltrans.o
                                                  build/obj/vectors.o (symbol from plugin)
                                                  /tmp/cc0IPsVg.ltrans6.ltrans.o
Vector16C                                         /tmp/cc0IPsVg.ltrans2.ltrans.o
                                                  build/obj/vectors.o (symbol from plugin)
                                                  /tmp/cc0IPsVg.ltrans6.ltrans.o
Vector170                                         /tmp/cc0IPsVg.ltrans7.ltrans.o
                                                  build/obj/ext_lld_isr.o (symbol from plugin)
                                                  build/obj/vectors.o (symbol from plugin)
                                                  /tmp/cc0IPsVg.ltrans6.ltrans.o
Vector174                                         /tmp/cc0IPsVg.ltrans7.ltrans.o
                                                  build/obj/usb_lld.o (symbol from plugin)
                                                  build/obj/vectors.o (symbol from plugin)
                                                  /tmp/cc0IPsVg.ltrans6.ltrans.o
Vector178                                         /tmp/cc0IPsVg.ltrans2.ltrans.o
                                                  build/obj/vectors.o (symbol from plugin)
                                                  /tmp/cc0IPsVg.ltrans6.ltrans.o
Vector17C                                         /tmp/cc0IPsVg.ltrans2.ltrans.o
                                                  build/obj/vectors.o (symbol from plugin)
                                                  /tmp/cc0IPsVg.ltrans6.ltrans.o
Vector180                                         /tmp/cc0IPsVg.ltrans2.ltrans.o
                                                  build/obj/vectors.o (symbol from plugin)
                                                  /tmp/cc0IPsVg.ltrans6.ltrans.o
Vector184                                         /tmp/cc0IPsVg.ltrans2.ltrans.o
                                                  build/obj/vectors.o (symbol from plugin)
                                                  /tmp/cc0IPsVg.ltrans6.ltrans.o
Vector188                                         /tmp/cc0IPsVg.ltrans2.ltrans.o
                                                  build/obj/vectors.o (symbol from plugin)
                                                  /tmp/cc0IPsVg.ltrans6.ltrans.o
Vector18C                                         /tmp/cc0IPsVg.ltrans2.ltrans.o
                                                  build/obj/vectors.o (symbol from plugin)
                                                  /tmp/cc0IPsVg.ltrans6.ltrans.o
Vector190                                         /tmp/cc0IPsVg.ltrans2.ltrans.o
                                                  build/obj/vectors.o (symbol from plugin)
                                                  /tmp/cc0IPsVg.ltrans6.ltrans.o
Vector194                                         /tmp/cc0IPsVg.ltrans2.ltrans.o
                                                  build/obj/vectors.o (symbol from plugin)
                                                  /tmp/cc0IPsVg.ltrans6.ltrans.o
Vector198                                         /tmp/cc0IPsVg.ltrans2.ltrans.o
                                                  build/obj/vectors.o (symbol from plugin)
                                                  /tmp/cc0IPsVg.ltrans6.ltrans.o
Vector19C                                         /tmp/cc0IPsVg.ltrans2.ltrans.o
                                                  build/obj/vectors.o (symbol from plugin)
                                                  /tmp/cc0IPsVg.ltrans6.ltrans.o
Vector1A0                                         /tmp/cc0IPsVg.ltrans2.ltrans.o
                                                  build/obj/vectors.o (symbol from plugin)
                                                  /tmp/cc0IPsVg.ltrans6.ltrans.o
Vector1A4                                         /tmp/cc0IPsVg.ltrans2.ltrans.o
                                                  build/obj/vectors.o (symbol from plugin)
                                                  /tmp/cc0IPsVg.ltrans6.ltrans.o
Vector1A8                                         /tmp/cc0IPsVg.ltrans2.ltrans.o
                                                  build/obj/vectors.o (symbol from plugin)
                                                  /tmp/cc0IPsVg.ltrans6.ltrans.o
Vector1AC                                         /tmp/cc0IPsVg.ltrans2.ltrans.o
                                                  build/obj/vectors.o (symbol from plugin)
                                                  /tmp/cc0IPsVg.ltrans6.ltrans.o
Vector1B0                                         /tmp/cc0IPsVg.ltrans2.ltrans.o
                                                  build/obj/vectors.o (symbol from plugin)
                                                  /tmp/cc0IPsVg.ltrans6.ltrans.o
Vector1B4                                         /tmp/cc0IPsVg.ltrans2.ltrans.o
                                                  build/obj/vectors.o (symbol from plugin)
                                                  /tmp/cc0IPsVg.ltrans6.ltrans.o
Vector1B8                                         /tmp/cc0IPsVg.ltrans2.ltrans.o
                                                  build/obj/vectors.o (symbol from plugin)
                                                  /tmp/cc0IPsVg.ltrans6.ltrans.o
Vector1BC                                         /tmp/cc0IPsVg.ltrans2.ltrans.o
                                                  build/obj/vectors.o (symbol from plugin)
                                                  /tmp/cc0IPsVg.ltrans6.ltrans.o
Vector1C                                          /tmp/cc0IPsVg.ltrans2.ltrans.o
                                                  build/obj/vectors.o (symbol from plugin)
                                                  /tmp/cc0IPsVg.ltrans6.ltrans.o
Vector20                                          /tmp/cc0IPsVg.ltrans2.ltrans.o
                                                  build/obj/vectors.o (symbol from plugin)
                                                  /tmp/cc0IPsVg.ltrans6.ltrans.o
Vector24                                          /tmp/cc0IPsVg.ltrans2.ltrans.o
                                                  build/obj/vectors.o (symbol from plugin)
                                                  /tmp/cc0IPsVg.ltrans6.ltrans.o
Vector28                                          /tmp/cc0IPsVg.ltrans2.ltrans.o
                                                  build/obj/vectors.o (symbol from plugin)
                                                  /tmp/cc0IPsVg.ltrans6.ltrans.o
Vector34                                          /tmp/cc0IPsVg.ltrans2.ltrans.o
                                                  build/obj/vectors.o (symbol from plugin)
                                                  /tmp/cc0IPsVg.ltrans6.ltrans.o
Vector40                                          /tmp/cc0IPsVg.ltrans2.ltrans.o
                                                  build/obj/vectors.o (symbol from plugin)
                                                  /tmp/cc0IPsVg.ltrans6.ltrans.o
Vector44                                          /tmp/cc0IPsVg.ltrans7.ltrans.o
                                                  build/obj/ext_lld_isr.o (symbol from plugin)
                                                  build/obj/vectors.o (symbol from plugin)
                                                  /tmp/cc0IPsVg.ltrans6.ltrans.o
Vector48                                          /tmp/cc0IPsVg.ltrans7.ltrans.o
                                                  build/obj/ext_lld_isr.o (symbol from plugin)
                                                  build/obj/vectors.o (symbol from plugin)
                                                  /tmp/cc0IPsVg.ltrans6.ltrans.o
Vector4C                                          /tmp/cc0IPsVg.ltrans7.ltrans.o
                                                  build/obj/ext_lld_isr.o (symbol from plugin)
                                                  build/obj/vectors.o (symbol from plugin)
                                                  /tmp/cc0IPsVg.ltrans6.ltrans.o
Vector50                                          /tmp/cc0IPsVg.ltrans2.ltrans.o
                                                  build/obj/vectors.o (symbol from plugin)
                                                  /tmp/cc0IPsVg.ltrans6.ltrans.o
Vector54                                          /tmp/cc0IPsVg.ltrans2.ltrans.o
                                                  build/obj/vectors.o (symbol from plugin)
                                                  /tmp/cc0IPsVg.ltrans6.ltrans.o
Vector58                                          /tmp/cc0IPsVg.ltrans9.ltrans.o
                                                  build/obj/ext_lld_isr.o (symbol from plugin)
                                                  build/obj/vectors.o (symbol from plugin)
                                                  /tmp/cc0IPsVg.ltrans6.ltrans.o
Vector5C                                          /tmp/cc0IPsVg.ltrans9.ltrans.o
                                                  build/obj/ext_lld_isr.o (symbol from plugin)
                                                  build/obj/vectors.o (symbol from plugin)
                                                  /tmp/cc0IPsVg.ltrans6.ltrans.o
Vector60                                          /tmp/cc0IPsVg.ltrans9.ltrans.o
                                                  build/obj/ext_lld_isr.o (symbol from plugin)
                                                  build/obj/vectors.o (symbol from plugin)
                                                  /tmp/cc0IPsVg.ltrans6.ltrans.o
Vector64                                          /tmp/cc0IPsVg.ltrans9.ltrans.o
                                                  build/obj/ext_lld_isr.o (symbol from plugin)
                                                  build/obj/vectors.o (symbol from plugin)
                                                  /tmp/cc0IPsVg.ltrans6.ltrans.o
Vector68                                          /tmp/cc0IPsVg.ltrans9.ltrans.o
                                                  build/obj/ext_lld_isr.o (symbol from plugin)
                                                  build/obj/vectors.o (symbol from plugin)
                                                  /tmp/cc0IPsVg.ltrans6.ltrans.o
Vector6C                                          /tmp/cc0IPsVg.ltrans9.ltrans.o
                                                  build/obj/stm32_dma.o (symbol from plugin)
                                                  build/obj/vectors.o (symbol from plugin)
                                                  /tmp/cc0IPsVg.ltrans6.ltrans.o
Vector70                                          /tmp/cc0IPsVg.ltrans9.ltrans.o
                                                  build/obj/stm32_dma.o (symbol from plugin)
                                                  build/obj/vectors.o (symbol from plugin)
                                                  /tmp/cc0IPsVg.ltrans6.ltrans.o
Vector74                                          /tmp/cc0IPsVg.ltrans9.ltrans.o
                                                  build/obj/stm32_dma.o (symbol from plugin)
                                                  build/obj/vectors.o (symbol from plugin)
                                                  /tmp/cc0IPsVg.ltrans6.ltrans.o
Vector78                                          /tmp/cc0IPsVg.ltrans9.ltrans.o
                                                  build/obj/stm32_dma.o (symbol from plugin)
                                                  build/obj/vectors.o (symbol from plugin)
                                                  /tmp/cc0IPsVg.ltrans6.ltrans.o
Vector7C                                          /tmp/cc0IPsVg.ltrans9.ltrans.o
                                                  build/obj/stm32_dma.o (symbol from plugin)
                                                  build/obj/vectors.o (symbol from plugin)
                                                  /tmp/cc0IPsVg.ltrans6.ltrans.o
Vector80                                          /tmp/cc0IPsVg.ltrans9.ltrans.o
                                                  build/obj/stm32_dma.o (symbol from plugin)
                                                  build/obj/vectors.o (symbol from plugin)
                                                  /tmp/cc0IPsVg.ltrans6.ltrans.o
Vector84                                          /tmp/cc0IPsVg.ltrans9.ltrans.o
                                                  build/obj/stm32_dma.o (symbol from plugin)
                                                  build/obj/vectors.o (symbol from plugin)
                                                  /tmp/cc0IPsVg.ltrans6.ltrans.o
Vector88                                          /tmp/cc0IPsVg.ltrans2.ltrans.o
                                                  build/obj/vectors.o (symbol from plugin)
                                                  /tmp/cc0IPsVg.ltrans6.ltrans.o
Vector8C                                          /tmp/cc0IPsVg.ltrans9.ltrans.o
                                                  build/obj/can_lld.o (symbol from plugin)
                                                  build/obj/vectors.o (symbol from plugin)
                                                  /tmp/cc0IPsVg.ltrans6.ltrans.o
Vector90                                          /tmp/cc0IPsVg.ltrans9.ltrans.o
                                                  build/obj/can_lld.o (symbol from plugin)
                                                  build/obj/vectors.o (symbol from plugin)
                                                  /tmp/cc0IPsVg.ltrans6.ltrans.o
Vector94                                          /tmp/cc0IPsVg.ltrans9.ltrans.o
                                                  build/obj/can_lld.o (symbol from plugin)
                                                  build/obj/vectors.o (symbol from plugin)
                                                  /tmp/cc0IPsVg.ltrans6.ltrans.o
Vector98                                          /tmp/cc0IPsVg.ltrans9.ltrans.o
                                                  build/obj/can_lld.o (symbol from plugin)
                                                  build/obj/vectors.o (symbol from plugin)
                                                  /tmp/cc0IPsVg.ltrans6.ltrans.o
Vector9C                                          /tmp/cc0IPsVg.ltrans9.ltrans.o
                                                  build/obj/ext_lld_isr.o (symbol from plugin)
                                                  build/obj/vectors.o (symbol from plugin)
                                                  /tmp/cc0IPsVg.ltrans6.ltrans.o
VectorA0                                          /tmp/cc0IPsVg.ltrans2.ltrans.o
                                                  build/obj/vectors.o (symbol from plugin)
                                                  /tmp/cc0IPsVg.ltrans6.ltrans.o
VectorA4                                          build/obj/pwm_lld.o (symbol from plugin)
                                                  build/obj/vectors.o (symbol from plugin)
VectorA8                                          /tmp/cc0IPsVg.ltrans2.ltrans.o
                                                  build/obj/vectors.o (symbol from plugin)
                                                  /tmp/cc0IPsVg.ltrans6.ltrans.o
VectorAC                                          build/obj/pwm_lld.o (symbol from plugin)
                                                  build/obj/vectors.o (symbol from plugin)
VectorB0                                          /tmp/cc0IPsVg.ltrans9.ltrans.o
                                                  build/obj/st_lld.o (symbol from plugin)
                                                  build/obj/vectors.o (symbol from plugin)
                                                  /tmp/cc0IPsVg.ltrans6.ltrans.o
VectorB4                                          build/obj/pwm_lld.o (symbol from plugin)
                                                  build/obj/vectors.o (symbol from plugin)
VectorB8                                          build/obj/pwm_lld.o (symbol from plugin)
                                                  build/obj/vectors.o (symbol from plugin)
VectorBC                                          /tmp/cc0IPsVg.ltrans2.ltrans.o
                                                  build/obj/vectors.o (symbol from plugin)
                                                  /tmp/cc0IPsVg.ltrans6.ltrans.o
VectorC0                                          /tmp/cc0IPsVg.ltrans2.ltrans.o
                                                  build/obj/vectors.o (symbol from plugin)
                                                  /tmp/cc0IPsVg.ltrans6.ltrans.o
VectorC4                                          /tmp/cc0IPsVg.ltrans2.ltrans.o
                                                  build/obj/vectors.o (symbol from plugin)
                                                  /tmp/cc0IPsVg.ltrans6.ltrans.o
VectorC8                                          /tmp/cc0IPsVg.ltrans2.ltrans.o
                                                  build/obj/vectors.o (symbol from plugin)
                                                  /tmp/cc0IPsVg.ltrans6.ltrans.o
VectorCC                                          /tmp/cc0IPsVg.ltrans2.ltrans.o
                                                  build/obj/vectors.o (symbol from plugin)
                                                  /tmp/cc0IPsVg.ltrans6.ltrans.o
VectorD0                                          /tmp/cc0IPsVg.ltrans2.ltrans.o
                                                  build/obj/vectors.o (symbol from plugin)
                                                  /tmp/cc0IPsVg.ltrans6.ltrans.o
VectorD4                                          build/obj/uart_lld.o (symbol from plugin)
                                                  build/obj/vectors.o (symbol from plugin)
VectorD8                                          /tmp/cc0IPsVg.ltrans2.ltrans.o
                                                  build/obj/vectors.o (symbol from plugin)
                                                  /tmp/cc0IPsVg.ltrans6.ltrans.o
VectorDC                                          /tmp/cc0IPsVg.ltrans2.ltrans.o
                                                  build/obj/vectors.o (symbol from plugin)
                                                  /tmp/cc0IPsVg.ltrans6.ltrans.o
VectorE0                                          /tmp/cc0IPsVg.ltrans7.ltrans.o
                                                  build/obj/ext_lld_isr.o (symbol from plugin)
                                                  build/obj/vectors.o (symbol from plugin)
                                                  /tmp/cc0IPsVg.ltrans6.ltrans.o
VectorE4                                          /tmp/cc0IPsVg.ltrans7.ltrans.o
                                                  build/obj/ext_lld_isr.o (symbol from plugin)
                                                  build/obj/vectors.o (symbol from plugin)
                                                  /tmp/cc0IPsVg.ltrans6.ltrans.o
VectorE8                                          /tmp/cc0IPsVg.ltrans7.ltrans.o
                                                  build/obj/ext_lld_isr.o (symbol from plugin)
                                                  build/obj/vectors.o (symbol from plugin)
                                                  /tmp/cc0IPsVg.ltrans6.ltrans.o
VectorEC                                          /tmp/cc0IPsVg.ltrans2.ltrans.o
                                                  build/obj/vectors.o (symbol from plugin)
                                                  /tmp/cc0IPsVg.ltrans6.ltrans.o
VectorF0                                          build/obj/pwm_lld.o (symbol from plugin)
                                                  build/obj/vectors.o (symbol from plugin)
VectorF4                                          /tmp/cc0IPsVg.ltrans2.ltrans.o
                                                  build/obj/vectors.o (symbol from plugin)
                                                  /tmp/cc0IPsVg.ltrans6.ltrans.o
VectorF8                                          build/obj/pwm_lld.o (symbol from plugin)
                                                  build/obj/vectors.o (symbol from plugin)
VectorFC                                          /tmp/cc0IPsVg.ltrans9.ltrans.o
                                                  build/obj/stm32_dma.o (symbol from plugin)
                                                  build/obj/vectors.o (symbol from plugin)
                                                  /tmp/cc0IPsVg.ltrans6.ltrans.o
WDGD1                                             build/obj/wdg_lld.o (symbol from plugin)
                                                  build/obj/main.o (symbol from plugin)
__adddf3                                          /usr/lib/gcc/arm-none-eabi/4.9.3/armv7e-m/fpu/libgcc.a(_arm_addsubdf3.o)
__aeabi_d2f                                       /usr/lib/gcc/arm-none-eabi/4.9.3/armv7e-m/fpu/libgcc.a(_arm_truncdfsf2.o)
                                                  /usr/lib/gcc/arm-none-eabi/4.9.3/../../../arm-none-eabi/lib/armv7e-m/fpu/libm.a(lib_a-wf_sqrt.o)
                                                  /usr/lib/gcc/arm-none-eabi/4.9.3/../../../arm-none-eabi/lib/armv7e-m/fpu/libm.a(lib_a-wf_asin.o)
                                                  /tmp/cc0IPsVg.ltrans5.ltrans.o
__aeabi_d2iz                                      /usr/lib/gcc/arm-none-eabi/4.9.3/armv7e-m/fpu/libgcc.a(_arm_fixdfsi.o)
                                                  /tmp/cc0IPsVg.ltrans5.ltrans.o
__aeabi_dadd                                      /usr/lib/gcc/arm-none-eabi/4.9.3/armv7e-m/fpu/libgcc.a(_arm_addsubdf3.o)
__aeabi_ddiv                                      /usr/lib/gcc/arm-none-eabi/4.9.3/armv7e-m/fpu/libgcc.a(_arm_muldivdf3.o)
                                                  /usr/lib/gcc/arm-none-eabi/4.9.3/../../../arm-none-eabi/lib/armv7e-m/fpu/libm.a(lib_a-wf_sqrt.o)
__aeabi_dmul                                      /usr/lib/gcc/arm-none-eabi/4.9.3/armv7e-m/fpu/libgcc.a(_arm_muldivdf3.o)
                                                  /tmp/cc0IPsVg.ltrans5.ltrans.o
__aeabi_drsub                                     /usr/lib/gcc/arm-none-eabi/4.9.3/armv7e-m/fpu/libgcc.a(_arm_addsubdf3.o)
__aeabi_dsub                                      /usr/lib/gcc/arm-none-eabi/4.9.3/armv7e-m/fpu/libgcc.a(_arm_addsubdf3.o)
                                                  /tmp/cc0IPsVg.ltrans5.ltrans.o
__aeabi_f2d                                       /usr/lib/gcc/arm-none-eabi/4.9.3/armv7e-m/fpu/libgcc.a(_arm_addsubdf3.o)
                                                  /usr/lib/gcc/arm-none-eabi/4.9.3/../../../arm-none-eabi/lib/armv7e-m/fpu/libm.a(lib_a-wf_sqrt.o)
                                                  /usr/lib/gcc/arm-none-eabi/4.9.3/../../../arm-none-eabi/lib/armv7e-m/fpu/libm.a(lib_a-wf_asin.o)
                                                  /tmp/cc0IPsVg.ltrans10.ltrans.o
                                                  /tmp/cc0IPsVg.ltrans5.ltrans.o
__aeabi_i2d                                       /usr/lib/gcc/arm-none-eabi/4.9.3/armv7e-m/fpu/libgcc.a(_arm_addsubdf3.o)
                                                  /tmp/cc0IPsVg.ltrans5.ltrans.o
__aeabi_l2d                                       /usr/lib/gcc/arm-none-eabi/4.9.3/armv7e-m/fpu/libgcc.a(_arm_addsubdf3.o)
__aeabi_ui2d                                      /usr/lib/gcc/arm-none-eabi/4.9.3/armv7e-m/fpu/libgcc.a(_arm_addsubdf3.o)
                                                  /tmp/cc0IPsVg.ltrans5.ltrans.o
__aeabi_ul2d                                      /usr/lib/gcc/arm-none-eabi/4.9.3/armv7e-m/fpu/libgcc.a(_arm_addsubdf3.o)
__core_init                                       /tmp/cc0IPsVg.ltrans2.ltrans.o
                                                  build/obj/crt1.o (symbol from plugin)
                                                  build/obj/crt0_v7m.o
__default_exit                                    /tmp/cc0IPsVg.ltrans2.ltrans.o
                                                  build/obj/crt1.o (symbol from plugin)
                                                  build/obj/crt0_v7m.o
__divdf3                                          /usr/lib/gcc/arm-none-eabi/4.9.3/armv7e-m/fpu/libgcc.a(_arm_muldivdf3.o)
__early_init                                      /tmp/cc0IPsVg.ltrans6.ltrans.o
                                                  build/obj/board.o (symbol from plugin)
                                                  build/obj/crt1.o (symbol from plugin)
                                                  build/obj/crt0_v7m.o
__errno                                           /usr/lib/gcc/arm-none-eabi/4.9.3/../../../arm-none-eabi/lib/armv7e-m/fpu/libg.a(lib_a-errno.o)
                                                  /usr/lib/gcc/arm-none-eabi/4.9.3/../../../arm-none-eabi/lib/armv7e-m/fpu/libm.a(lib_a-wf_sqrt.o)
                                                  /usr/lib/gcc/arm-none-eabi/4.9.3/../../../arm-none-eabi/lib/armv7e-m/fpu/libm.a(lib_a-wf_asin.o)
__extendsfdf2                                     /usr/lib/gcc/arm-none-eabi/4.9.3/armv7e-m/fpu/libgcc.a(_arm_addsubdf3.o)
__fdlib_version                                   /usr/lib/gcc/arm-none-eabi/4.9.3/../../../arm-none-eabi/lib/armv7e-m/fpu/libm.a(lib_a-s_lib_ver.o)
                                                  /usr/lib/gcc/arm-none-eabi/4.9.3/../../../arm-none-eabi/lib/armv7e-m/fpu/libm.a(lib_a-wf_sqrt.o)
                                                  /usr/lib/gcc/arm-none-eabi/4.9.3/../../../arm-none-eabi/lib/armv7e-m/fpu/libm.a(lib_a-wf_asin.o)
__fini_array_end                                  build/obj/crt0_v7m.o
__fini_array_start                                build/obj/crt0_v7m.o
__fixdfsi                                         /usr/lib/gcc/arm-none-eabi/4.9.3/armv7e-m/fpu/libgcc.a(_arm_fixdfsi.o)
__floatdidf                                       /usr/lib/gcc/arm-none-eabi/4.9.3/armv7e-m/fpu/libgcc.a(_arm_addsubdf3.o)
__floatsidf                                       /usr/lib/gcc/arm-none-eabi/4.9.3/armv7e-m/fpu/libgcc.a(_arm_addsubdf3.o)
__floatundidf                                     /usr/lib/gcc/arm-none-eabi/4.9.3/armv7e-m/fpu/libgcc.a(_arm_addsubdf3.o)
__floatunsidf                                     /usr/lib/gcc/arm-none-eabi/4.9.3/armv7e-m/fpu/libgcc.a(_arm_addsubdf3.o)
__fpclassifyf                                     /usr/lib/gcc/arm-none-eabi/4.9.3/../../../arm-none-eabi/lib/armv7e-m/fpu/libm.a(lib_a-sf_fpclassify.o)
                                                  /usr/lib/gcc/arm-none-eabi/4.9.3/../../../arm-none-eabi/lib/armv7e-m/fpu/libm.a(lib_a-wf_sqrt.o)
                                                  /usr/lib/gcc/arm-none-eabi/4.9.3/../../../arm-none-eabi/lib/armv7e-m/fpu/libm.a(lib_a-wf_asin.o)
                                                  /tmp/cc0IPsVg.ltrans10.ltrans.o
                                                  /tmp/cc0IPsVg.ltrans1.ltrans.o
                                                  build/obj/math_misc.o (symbol from plugin)
                                                  build/obj/attitude.o (symbol from plugin)
__func__.6022.lto_priv.171                        /tmp/cc0IPsVg.ltrans1.ltrans.o
                                                  /tmp/cc0IPsVg.ltrans3.ltrans.o
__func__.6022.lto_priv.179                        /tmp/cc0IPsVg.ltrans5.ltrans.o
                                                  /tmp/cc0IPsVg.ltrans2.ltrans.o
__func__.6022.lto_priv.80                         /tmp/cc0IPsVg.ltrans14.ltrans.o
                                                  /tmp/cc0IPsVg.ltrans10.ltrans.o
                                                  /tmp/cc0IPsVg.ltrans0.ltrans.o
__func__.6022.lto_priv.81                         /tmp/cc0IPsVg.ltrans14.ltrans.o
                                                  /tmp/cc0IPsVg.ltrans1.ltrans.o
__func__.6022.lto_priv.82                         /tmp/cc0IPsVg.ltrans14.ltrans.o
                                                  /tmp/cc0IPsVg.ltrans10.ltrans.o
__func__.6208.lto_priv.183                        /tmp/cc0IPsVg.ltrans13.ltrans.o
                                                  /tmp/cc0IPsVg.ltrans2.ltrans.o
__func__.6336.lto_priv.178                        /tmp/cc0IPsVg.ltrans4.ltrans.o
                                                  /tmp/cc0IPsVg.ltrans2.ltrans.o
__func__.8760.lto_priv.167                        /tmp/cc0IPsVg.ltrans7.ltrans.o
                                                  /tmp/cc0IPsVg.ltrans3.ltrans.o
__heap_base__                                     /tmp/cc0IPsVg.ltrans0.ltrans.o
                                                  build/obj/chmemcore.o (symbol from plugin)
__heap_end__                                      /tmp/cc0IPsVg.ltrans0.ltrans.o
                                                  build/obj/chmemcore.o (symbol from plugin)
__ieee754_asinf                                   /usr/lib/gcc/arm-none-eabi/4.9.3/../../../arm-none-eabi/lib/armv7e-m/fpu/libm.a(lib_a-ef_asin.o)
                                                  /usr/lib/gcc/arm-none-eabi/4.9.3/../../../arm-none-eabi/lib/armv7e-m/fpu/libm.a(lib_a-wf_asin.o)
__ieee754_atan2f                                  /usr/lib/gcc/arm-none-eabi/4.9.3/../../../arm-none-eabi/lib/armv7e-m/fpu/libm.a(lib_a-ef_atan2.o)
                                                  /usr/lib/gcc/arm-none-eabi/4.9.3/../../../arm-none-eabi/lib/armv7e-m/fpu/libm.a(lib_a-wf_atan2.o)
__ieee754_rem_pio2f                               /usr/lib/gcc/arm-none-eabi/4.9.3/../../../arm-none-eabi/lib/armv7e-m/fpu/libm.a(lib_a-ef_rem_pio2.o)
                                                  /usr/lib/gcc/arm-none-eabi/4.9.3/../../../arm-none-eabi/lib/armv7e-m/fpu/libm.a(lib_a-sf_tan.o)
                                                  /usr/lib/gcc/arm-none-eabi/4.9.3/../../../arm-none-eabi/lib/armv7e-m/fpu/libm.a(lib_a-sf_sin.o)
                                                  /usr/lib/gcc/arm-none-eabi/4.9.3/../../../arm-none-eabi/lib/armv7e-m/fpu/libm.a(lib_a-sf_cos.o)
__ieee754_sqrtf                                   /usr/lib/gcc/arm-none-eabi/4.9.3/../../../arm-none-eabi/lib/armv7e-m/fpu/libm.a(lib_a-ef_sqrt.o)
                                                  /usr/lib/gcc/arm-none-eabi/4.9.3/../../../arm-none-eabi/lib/armv7e-m/fpu/libm.a(lib_a-ef_asin.o)
                                                  /usr/lib/gcc/arm-none-eabi/4.9.3/../../../arm-none-eabi/lib/armv7e-m/fpu/libm.a(lib_a-wf_sqrt.o)
__init_array_end                                  build/obj/crt0_v7m.o
__init_array_start                                build/obj/crt0_v7m.o
__init_ram_areas                                  /tmp/cc0IPsVg.ltrans2.ltrans.o
                                                  build/obj/crt1.o (symbol from plugin)
                                                  build/obj/crt0_v7m.o
__kernel_cosf                                     /usr/lib/gcc/arm-none-eabi/4.9.3/../../../arm-none-eabi/lib/armv7e-m/fpu/libm.a(lib_a-kf_cos.o)
                                                  /usr/lib/gcc/arm-none-eabi/4.9.3/../../../arm-none-eabi/lib/armv7e-m/fpu/libm.a(lib_a-sf_sin.o)
                                                  /usr/lib/gcc/arm-none-eabi/4.9.3/../../../arm-none-eabi/lib/armv7e-m/fpu/libm.a(lib_a-sf_cos.o)
__kernel_rem_pio2f                                /usr/lib/gcc/arm-none-eabi/4.9.3/../../../arm-none-eabi/lib/armv7e-m/fpu/libm.a(lib_a-kf_rem_pio2.o)
                                                  /usr/lib/gcc/arm-none-eabi/4.9.3/../../../arm-none-eabi/lib/armv7e-m/fpu/libm.a(lib_a-ef_rem_pio2.o)
__kernel_sinf                                     /usr/lib/gcc/arm-none-eabi/4.9.3/../../../arm-none-eabi/lib/armv7e-m/fpu/libm.a(lib_a-kf_sin.o)
                                                  /usr/lib/gcc/arm-none-eabi/4.9.3/../../../arm-none-eabi/lib/armv7e-m/fpu/libm.a(lib_a-sf_sin.o)
                                                  /usr/lib/gcc/arm-none-eabi/4.9.3/../../../arm-none-eabi/lib/armv7e-m/fpu/libm.a(lib_a-sf_cos.o)
__kernel_tanf                                     /usr/lib/gcc/arm-none-eabi/4.9.3/../../../arm-none-eabi/lib/armv7e-m/fpu/libm.a(lib_a-kf_tan.o)
                                                  /usr/lib/gcc/arm-none-eabi/4.9.3/../../../arm-none-eabi/lib/armv7e-m/fpu/libm.a(lib_a-sf_tan.o)
__late_init                                       /tmp/cc0IPsVg.ltrans2.ltrans.o
                                                  build/obj/crt1.o (symbol from plugin)
                                                  build/obj/crt0_v7m.o
__main_stack_base__                               build/obj/crt0_v7m.o
__main_stack_end__                                /tmp/cc0IPsVg.ltrans6.ltrans.o
                                                  build/obj/vectors.o (symbol from plugin)
                                                  build/obj/crt0_v7m.o
__main_thread_stack_base__                        /tmp/cc0IPsVg.ltrans0.ltrans.o
                                                  build/obj/chsys.o (symbol from plugin)
__muldf3                                          /usr/lib/gcc/arm-none-eabi/4.9.3/armv7e-m/fpu/libgcc.a(_arm_muldivdf3.o)
__process_stack_base__                            build/obj/crt0_v7m.o
__process_stack_end__                             build/obj/crt0_v7m.o
__ram0_clear__                                    /tmp/cc0IPsVg.ltrans2.ltrans.o
                                                  build/obj/crt1.o (symbol from plugin)
__ram0_init__                                     /tmp/cc0IPsVg.ltrans2.ltrans.o
                                                  build/obj/crt1.o (symbol from plugin)
__ram0_init_text__                                /tmp/cc0IPsVg.ltrans2.ltrans.o
                                                  build/obj/crt1.o (symbol from plugin)
__ram0_noinit__                                   /tmp/cc0IPsVg.ltrans2.ltrans.o
                                                  build/obj/crt1.o (symbol from plugin)
__ram1_clear__                                    /tmp/cc0IPsVg.ltrans2.ltrans.o
                                                  build/obj/crt1.o (symbol from plugin)
__ram1_init__                                     /tmp/cc0IPsVg.ltrans2.ltrans.o
                                                  build/obj/crt1.o (symbol from plugin)
__ram1_init_text__                                /tmp/cc0IPsVg.ltrans2.ltrans.o
                                                  build/obj/crt1.o (symbol from plugin)
__ram1_noinit__                                   /tmp/cc0IPsVg.ltrans2.ltrans.o
                                                  build/obj/crt1.o (symbol from plugin)
__ram2_clear__                                    /tmp/cc0IPsVg.ltrans2.ltrans.o
                                                  build/obj/crt1.o (symbol from plugin)
__ram2_init__                                     /tmp/cc0IPsVg.ltrans2.ltrans.o
                                                  build/obj/crt1.o (symbol from plugin)
__ram2_init_text__                                /tmp/cc0IPsVg.ltrans2.ltrans.o
                                                  build/obj/crt1.o (symbol from plugin)
__ram2_noinit__                                   /tmp/cc0IPsVg.ltrans2.ltrans.o
                                                  build/obj/crt1.o (symbol from plugin)
__ram3_clear__                                    /tmp/cc0IPsVg.ltrans2.ltrans.o
                                                  build/obj/crt1.o (symbol from plugin)
__ram3_init__                                     /tmp/cc0IPsVg.ltrans2.ltrans.o
                                                  build/obj/crt1.o (symbol from plugin)
__ram3_init_text__                                /tmp/cc0IPsVg.ltrans2.ltrans.o
                                                  build/obj/crt1.o (symbol from plugin)
__ram3_noinit__                                   /tmp/cc0IPsVg.ltrans2.ltrans.o
                                                  build/obj/crt1.o (symbol from plugin)
__ram4_clear__                                    /tmp/cc0IPsVg.ltrans2.ltrans.o
                                                  build/obj/crt1.o (symbol from plugin)
__ram4_init__                                     /tmp/cc0IPsVg.ltrans2.ltrans.o
                                                  build/obj/crt1.o (symbol from plugin)
__ram4_init_text__                                /tmp/cc0IPsVg.ltrans2.ltrans.o
                                                  build/obj/crt1.o (symbol from plugin)
__ram4_noinit__                                   /tmp/cc0IPsVg.ltrans2.ltrans.o
                                                  build/obj/crt1.o (symbol from plugin)
__ram5_clear__                                    /tmp/cc0IPsVg.ltrans2.ltrans.o
                                                  build/obj/crt1.o (symbol from plugin)
__ram5_init__                                     /tmp/cc0IPsVg.ltrans2.ltrans.o
                                                  build/obj/crt1.o (symbol from plugin)
__ram5_init_text__                                /tmp/cc0IPsVg.ltrans2.ltrans.o
                                                  build/obj/crt1.o (symbol from plugin)
__ram5_noinit__                                   /tmp/cc0IPsVg.ltrans2.ltrans.o
                                                  build/obj/crt1.o (symbol from plugin)
__ram6_clear__                                    /tmp/cc0IPsVg.ltrans2.ltrans.o
                                                  build/obj/crt1.o (symbol from plugin)
__ram6_init__                                     /tmp/cc0IPsVg.ltrans2.ltrans.o
                                                  build/obj/crt1.o (symbol from plugin)
__ram6_init_text__                                /tmp/cc0IPsVg.ltrans2.ltrans.o
                                                  build/obj/crt1.o (symbol from plugin)
__ram6_noinit__                                   /tmp/cc0IPsVg.ltrans2.ltrans.o
                                                  build/obj/crt1.o (symbol from plugin)
__ram7_clear__                                    /tmp/cc0IPsVg.ltrans2.ltrans.o
                                                  build/obj/crt1.o (symbol from plugin)
__ram7_init__                                     /tmp/cc0IPsVg.ltrans2.ltrans.o
                                                  build/obj/crt1.o (symbol from plugin)
__ram7_init_text__                                /tmp/cc0IPsVg.ltrans2.ltrans.o
                                                  build/obj/crt1.o (symbol from plugin)
__ram7_noinit__                                   /tmp/cc0IPsVg.ltrans2.ltrans.o
                                                  build/obj/crt1.o (symbol from plugin)
__subdf3                                          /usr/lib/gcc/arm-none-eabi/4.9.3/armv7e-m/fpu/libgcc.a(_arm_addsubdf3.o)
__truncdfsf2                                      /usr/lib/gcc/arm-none-eabi/4.9.3/armv7e-m/fpu/libgcc.a(_arm_truncdfsf2.o)
_bss_end                                          build/obj/crt0_v7m.o
_bss_start                                        build/obj/crt0_v7m.o
_close_r                                          /tmp/cc0IPsVg.ltrans6.ltrans.o
                                                  build/obj/syscalls.o (symbol from plugin)
_core_init                                        build/obj/chmemcore.o (symbol from plugin)
                                                  build/obj/chsys.o (symbol from plugin)
_data_end                                         build/obj/crt0_v7m.o
_data_start                                       build/obj/crt0_v7m.o
_dbg_check_disable                                build/obj/chdebug.o (symbol from plugin)
_dbg_check_enable                                 build/obj/chdebug.o (symbol from plugin)
                                                  build/obj/chsys.o (symbol from plugin)
_dbg_check_enter_isr                              /tmp/cc0IPsVg.ltrans2.ltrans.o
                                                  build/obj/chdebug.o (symbol from plugin)
                                                  /tmp/cc0IPsVg.ltrans9.ltrans.o
                                                  /tmp/cc0IPsVg.ltrans7.ltrans.o
                                                  /tmp/cc0IPsVg.ltrans6.ltrans.o
                                                  build/obj/uart_lld.o (symbol from plugin)
                                                  build/obj/pwm_lld.o (symbol from plugin)
                                                  build/obj/sdc_lld.o (symbol from plugin)
                                                  build/obj/usb_lld.o (symbol from plugin)
                                                  build/obj/ext_lld_isr.o (symbol from plugin)
                                                  build/obj/can_lld.o (symbol from plugin)
                                                  build/obj/st_lld.o (symbol from plugin)
                                                  build/obj/stm32_dma.o (symbol from plugin)
_dbg_check_leave_isr                              /tmp/cc0IPsVg.ltrans2.ltrans.o
                                                  build/obj/chdebug.o (symbol from plugin)
                                                  /tmp/cc0IPsVg.ltrans9.ltrans.o
                                                  /tmp/cc0IPsVg.ltrans7.ltrans.o
                                                  /tmp/cc0IPsVg.ltrans6.ltrans.o
                                                  build/obj/uart_lld.o (symbol from plugin)
                                                  build/obj/pwm_lld.o (symbol from plugin)
                                                  build/obj/sdc_lld.o (symbol from plugin)
                                                  build/obj/usb_lld.o (symbol from plugin)
                                                  build/obj/ext_lld_isr.o (symbol from plugin)
                                                  build/obj/can_lld.o (symbol from plugin)
                                                  build/obj/st_lld.o (symbol from plugin)
                                                  build/obj/stm32_dma.o (symbol from plugin)
_dbg_check_lock                                   /tmp/cc0IPsVg.ltrans2.ltrans.o
                                                  build/obj/chdebug.o (symbol from plugin)
                                                  /tmp/cc0IPsVg.ltrans14.ltrans.o
                                                  /tmp/cc0IPsVg.ltrans13.ltrans.o
                                                  /tmp/cc0IPsVg.ltrans12.ltrans.o
                                                  /tmp/cc0IPsVg.ltrans11.ltrans.o
                                                  /tmp/cc0IPsVg.ltrans10.ltrans.o
                                                  /tmp/cc0IPsVg.ltrans8.ltrans.o
                                                  /tmp/cc0IPsVg.ltrans7.ltrans.o
                                                  /tmp/cc0IPsVg.ltrans6.ltrans.o
                                                  /tmp/cc0IPsVg.ltrans5.ltrans.o
                                                  /tmp/cc0IPsVg.ltrans4.ltrans.o
                                                  /tmp/cc0IPsVg.ltrans3.ltrans.o
                                                  /tmp/cc0IPsVg.ltrans1.ltrans.o
                                                  /tmp/cc0IPsVg.ltrans0.ltrans.o
                                                  build/obj/main.o (symbol from plugin)
                                                  build/obj/exti.o (symbol from plugin)
                                                  build/obj/feeder.o (symbol from plugin)
                                                  build/obj/params.o (symbol from plugin)
                                                  build/obj/gimbal.o (symbol from plugin)
                                                  build/obj/dbus.o (symbol from plugin)
                                                  build/obj/canBusProcess.o (symbol from plugin)
                                                  build/obj/evtimer.o (symbol from plugin)
                                                  build/obj/shell.o (symbol from plugin)
                                                  build/obj/sdc_lld.o (symbol from plugin)
                                                  build/obj/usb_lld.o (symbol from plugin)
                                                  build/obj/wdg.o (symbol from plugin)
                                                  build/obj/usb.o (symbol from plugin)
                                                  build/obj/uart.o (symbol from plugin)
                                                  build/obj/spi.o (symbol from plugin)
                                                  build/obj/serial_usb.o (symbol from plugin)
                                                  build/obj/sdc.o (symbol from plugin)
                                                  build/obj/pwm.o (symbol from plugin)
                                                  build/obj/ext.o (symbol from plugin)
                                                  build/obj/can.o (symbol from plugin)
                                                  build/obj/hal_buffers.o (symbol from plugin)
                                                  build/obj/chmempools.o (symbol from plugin)
                                                  build/obj/chmemcore.o (symbol from plugin)
                                                  build/obj/chqueues.o (symbol from plugin)
                                                  build/obj/chmboxes.o (symbol from plugin)
                                                  build/obj/chmsg.o (symbol from plugin)
                                                  build/obj/chevents.o (symbol from plugin)
                                                  build/obj/chcond.o (symbol from plugin)
                                                  build/obj/chmtx.o (symbol from plugin)
                                                  build/obj/chsem.o (symbol from plugin)
                                                  build/obj/chregistry.o (symbol from plugin)
                                                  build/obj/chdynamic.o (symbol from plugin)
                                                  build/obj/chthreads.o (symbol from plugin)
                                                  build/obj/chsys.o (symbol from plugin)
                                                  build/obj/chcoreasm_v7m.o
_dbg_check_lock_from_isr                          /tmp/cc0IPsVg.ltrans2.ltrans.o
                                                  build/obj/chdebug.o (symbol from plugin)
                                                  /tmp/cc0IPsVg.ltrans13.ltrans.o
                                                  /tmp/cc0IPsVg.ltrans10.ltrans.o
                                                  /tmp/cc0IPsVg.ltrans9.ltrans.o
                                                  /tmp/cc0IPsVg.ltrans8.ltrans.o
                                                  /tmp/cc0IPsVg.ltrans7.ltrans.o
                                                  /tmp/cc0IPsVg.ltrans6.ltrans.o
                                                  /tmp/cc0IPsVg.ltrans3.ltrans.o
                                                  build/obj/exti.o (symbol from plugin)
                                                  build/obj/usbcfg.o (symbol from plugin)
                                                  build/obj/dbus.o (symbol from plugin)
                                                  build/obj/evtimer.o (symbol from plugin)
                                                  build/obj/uart_lld.o (symbol from plugin)
                                                  build/obj/spi_lld.o (symbol from plugin)
                                                  build/obj/sdc_lld.o (symbol from plugin)
                                                  build/obj/usb_lld.o (symbol from plugin)
                                                  build/obj/can_lld.o (symbol from plugin)
                                                  build/obj/st_lld.o (symbol from plugin)
                                                  build/obj/usb.o (symbol from plugin)
                                                  build/obj/serial_usb.o (symbol from plugin)
                                                  build/obj/chschd.o (symbol from plugin)
                                                  build/obj/chsys.o (symbol from plugin)
_dbg_check_suspend                                build/obj/chdebug.o (symbol from plugin)
_dbg_check_unlock                                 /tmp/cc0IPsVg.ltrans2.ltrans.o
                                                  build/obj/chdebug.o (symbol from plugin)
                                                  /tmp/cc0IPsVg.ltrans14.ltrans.o
                                                  /tmp/cc0IPsVg.ltrans13.ltrans.o
                                                  /tmp/cc0IPsVg.ltrans12.ltrans.o
                                                  /tmp/cc0IPsVg.ltrans11.ltrans.o
                                                  /tmp/cc0IPsVg.ltrans10.ltrans.o
                                                  /tmp/cc0IPsVg.ltrans8.ltrans.o
                                                  /tmp/cc0IPsVg.ltrans7.ltrans.o
                                                  /tmp/cc0IPsVg.ltrans6.ltrans.o
                                                  /tmp/cc0IPsVg.ltrans5.ltrans.o
                                                  /tmp/cc0IPsVg.ltrans4.ltrans.o
                                                  /tmp/cc0IPsVg.ltrans3.ltrans.o
                                                  /tmp/cc0IPsVg.ltrans1.ltrans.o
                                                  /tmp/cc0IPsVg.ltrans0.ltrans.o
                                                  build/obj/main.o (symbol from plugin)
                                                  build/obj/exti.o (symbol from plugin)
                                                  build/obj/feeder.o (symbol from plugin)
                                                  build/obj/params.o (symbol from plugin)
                                                  build/obj/gimbal.o (symbol from plugin)
                                                  build/obj/dbus.o (symbol from plugin)
                                                  build/obj/canBusProcess.o (symbol from plugin)
                                                  build/obj/evtimer.o (symbol from plugin)
                                                  build/obj/shell.o (symbol from plugin)
                                                  build/obj/sdc_lld.o (symbol from plugin)
                                                  build/obj/usb_lld.o (symbol from plugin)
                                                  build/obj/wdg.o (symbol from plugin)
                                                  build/obj/usb.o (symbol from plugin)
                                                  build/obj/uart.o (symbol from plugin)
                                                  build/obj/spi.o (symbol from plugin)
                                                  build/obj/serial_usb.o (symbol from plugin)
                                                  build/obj/sdc.o (symbol from plugin)
                                                  build/obj/pwm.o (symbol from plugin)
                                                  build/obj/ext.o (symbol from plugin)
                                                  build/obj/can.o (symbol from plugin)
                                                  build/obj/hal_buffers.o (symbol from plugin)
                                                  build/obj/chmempools.o (symbol from plugin)
                                                  build/obj/chmemcore.o (symbol from plugin)
                                                  build/obj/chqueues.o (symbol from plugin)
                                                  build/obj/chmboxes.o (symbol from plugin)
                                                  build/obj/chmsg.o (symbol from plugin)
                                                  build/obj/chevents.o (symbol from plugin)
                                                  build/obj/chcond.o (symbol from plugin)
                                                  build/obj/chmtx.o (symbol from plugin)
                                                  build/obj/chsem.o (symbol from plugin)
                                                  build/obj/chregistry.o (symbol from plugin)
                                                  build/obj/chdynamic.o (symbol from plugin)
                                                  build/obj/chthreads.o (symbol from plugin)
                                                  build/obj/chsys.o (symbol from plugin)
                                                  build/obj/chcoreasm_v7m.o
_dbg_check_unlock_from_isr                        /tmp/cc0IPsVg.ltrans2.ltrans.o
                                                  build/obj/chdebug.o (symbol from plugin)
                                                  /tmp/cc0IPsVg.ltrans13.ltrans.o
                                                  /tmp/cc0IPsVg.ltrans10.ltrans.o
                                                  /tmp/cc0IPsVg.ltrans9.ltrans.o
                                                  /tmp/cc0IPsVg.ltrans8.ltrans.o
                                                  /tmp/cc0IPsVg.ltrans7.ltrans.o
                                                  /tmp/cc0IPsVg.ltrans6.ltrans.o
                                                  /tmp/cc0IPsVg.ltrans3.ltrans.o
                                                  build/obj/exti.o (symbol from plugin)
                                                  build/obj/usbcfg.o (symbol from plugin)
                                                  build/obj/dbus.o (symbol from plugin)
                                                  build/obj/evtimer.o (symbol from plugin)
                                                  build/obj/uart_lld.o (symbol from plugin)
                                                  build/obj/spi_lld.o (symbol from plugin)
                                                  build/obj/sdc_lld.o (symbol from plugin)
                                                  build/obj/usb_lld.o (symbol from plugin)
                                                  build/obj/can_lld.o (symbol from plugin)
                                                  build/obj/st_lld.o (symbol from plugin)
                                                  build/obj/usb.o (symbol from plugin)
                                                  build/obj/serial_usb.o (symbol from plugin)
                                                  build/obj/chschd.o (symbol from plugin)
                                                  build/obj/chsys.o (symbol from plugin)
_dbg_trace                                        /tmp/cc0IPsVg.ltrans2.ltrans.o
                                                  build/obj/chdebug.o (symbol from plugin)
                                                  /tmp/cc0IPsVg.ltrans14.ltrans.o
                                                  build/obj/chschd.o (symbol from plugin)
_dbg_trace_init                                   build/obj/chdebug.o (symbol from plugin)
                                                  build/obj/chsys.o (symbol from plugin)
_fstat_r                                          /tmp/cc0IPsVg.ltrans6.ltrans.o
                                                  build/obj/syscalls.o (symbol from plugin)
_global_impure_ptr                                /usr/lib/gcc/arm-none-eabi/4.9.3/../../../arm-none-eabi/lib/armv7e-m/fpu/libg.a(lib_a-impure.o)
_heap_init                                        build/obj/chheap.o (symbol from plugin)
                                                  build/obj/chsys.o (symbol from plugin)
_idle_thread.lto_priv.99                          /tmp/cc0IPsVg.ltrans2.ltrans.o
                                                  /tmp/cc0IPsVg.ltrans0.ltrans.o
_impure_ptr                                       /usr/lib/gcc/arm-none-eabi/4.9.3/../../../arm-none-eabi/lib/armv7e-m/fpu/libg.a(lib_a-impure.o)
                                                  /usr/lib/gcc/arm-none-eabi/4.9.3/../../../arm-none-eabi/lib/armv7e-m/fpu/libg.a(lib_a-errno.o)
_isatty_r                                         /tmp/cc0IPsVg.ltrans6.ltrans.o
                                                  build/obj/syscalls.o (symbol from plugin)
_lseek_r                                          /tmp/cc0IPsVg.ltrans6.ltrans.o
                                                  build/obj/syscalls.o (symbol from plugin)
_mmcsd_get_capacity                               build/obj/hal_mmcsd.o (symbol from plugin)
                                                  build/obj/sdc.o (symbol from plugin)
_mmcsd_get_capacity_ext                           build/obj/hal_mmcsd.o (symbol from plugin)
                                                  build/obj/sdc.o (symbol from plugin)
_mmcsd_get_slice                                  build/obj/hal_mmcsd.o (symbol from plugin)
                                                  build/obj/sdc.o (symbol from plugin)
_mmcsd_unpack_csd_mmc                             build/obj/hal_mmcsd.o (symbol from plugin)
_mmcsd_unpack_csd_v10                             build/obj/hal_mmcsd.o (symbol from plugin)
_mmcsd_unpack_csd_v20                             build/obj/hal_mmcsd.o (symbol from plugin)
_mmcsd_unpack_mmc_cid                             build/obj/hal_mmcsd.o (symbol from plugin)
_mmcsd_unpack_sdc_cid                             build/obj/hal_mmcsd.o (symbol from plugin)
_pal_lld_init                                     build/obj/pal_lld.o (symbol from plugin)
                                                  build/obj/hal.o (symbol from plugin)
_pal_lld_setgroupmode                             build/obj/pal_lld.o (symbol from plugin)
                                                  build/obj/pal.o (symbol from plugin)
_pitch_atti.lto_priv.142                          /tmp/cc0IPsVg.ltrans0.ltrans.o
                                                  /tmp/cc0IPsVg.ltrans12.ltrans.o
_pitch_atti_name                                  build/obj/gimbal.o (symbol from plugin)
_pitch_pos.lto_priv.136                           /tmp/cc0IPsVg.ltrans0.ltrans.o
                                                  /tmp/cc0IPsVg.ltrans12.ltrans.o
_pitch_vel.lto_priv.140                           /tmp/cc0IPsVg.ltrans0.ltrans.o
                                                  /tmp/cc0IPsVg.ltrans12.ltrans.o
_pitch_vel_name                                   build/obj/gimbal.o (symbol from plugin)
_port_exit_from_isr                               build/obj/chcoreasm_v7m.o
                                                  /tmp/cc0IPsVg.ltrans2.ltrans.o
                                                  build/obj/chcore_v7m.o (symbol from plugin)
_port_irq_epilogue                                /tmp/cc0IPsVg.ltrans2.ltrans.o
                                                  build/obj/chcore_v7m.o (symbol from plugin)
                                                  /tmp/cc0IPsVg.ltrans9.ltrans.o
                                                  /tmp/cc0IPsVg.ltrans7.ltrans.o
                                                  /tmp/cc0IPsVg.ltrans6.ltrans.o
                                                  build/obj/uart_lld.o (symbol from plugin)
                                                  build/obj/pwm_lld.o (symbol from plugin)
                                                  build/obj/sdc_lld.o (symbol from plugin)
                                                  build/obj/usb_lld.o (symbol from plugin)
                                                  build/obj/ext_lld_isr.o (symbol from plugin)
                                                  build/obj/can_lld.o (symbol from plugin)
                                                  build/obj/st_lld.o (symbol from plugin)
                                                  build/obj/stm32_dma.o (symbol from plugin)
_port_switch                                      build/obj/chcoreasm_v7m.o
                                                  /tmp/cc0IPsVg.ltrans14.ltrans.o
                                                  /tmp/cc0IPsVg.ltrans2.ltrans.o
                                                  build/obj/chschd.o (symbol from plugin)
_port_switch_from_isr                             build/obj/chcoreasm_v7m.o
                                                  /tmp/cc0IPsVg.ltrans2.ltrans.o
                                                  build/obj/chcore_v7m.o (symbol from plugin)
_port_thread_start                                build/obj/chcoreasm_v7m.o
                                                  /tmp/cc0IPsVg.ltrans2.ltrans.o
                                                  build/obj/chthreads.o (symbol from plugin)
_read_r                                           /tmp/cc0IPsVg.ltrans6.ltrans.o
                                                  build/obj/syscalls.o (symbol from plugin)
_sbrk_r                                           /tmp/cc0IPsVg.ltrans6.ltrans.o
                                                  build/obj/syscalls.o (symbol from plugin)
_scheduler_init                                   build/obj/chschd.o (symbol from plugin)
                                                  build/obj/chsys.o (symbol from plugin)
_sdc_wait_for_transfer_state                      /tmp/cc0IPsVg.ltrans4.ltrans.o
                                                  build/obj/sdc.o (symbol from plugin)
                                                  /tmp/cc0IPsVg.ltrans13.ltrans.o
                                                  /tmp/cc0IPsVg.ltrans6.ltrans.o
                                                  build/obj/sdc_lld.o (symbol from plugin)
_stats_ctxswc                                     build/obj/chstats.o (symbol from plugin)
                                                  build/obj/chschd.o (symbol from plugin)
_stats_increase_irq                               /tmp/cc0IPsVg.ltrans2.ltrans.o
                                                  build/obj/chstats.o (symbol from plugin)
                                                  /tmp/cc0IPsVg.ltrans9.ltrans.o
                                                  /tmp/cc0IPsVg.ltrans7.ltrans.o
                                                  /tmp/cc0IPsVg.ltrans6.ltrans.o
                                                  build/obj/uart_lld.o (symbol from plugin)
                                                  build/obj/pwm_lld.o (symbol from plugin)
                                                  build/obj/sdc_lld.o (symbol from plugin)
                                                  build/obj/usb_lld.o (symbol from plugin)
                                                  build/obj/ext_lld_isr.o (symbol from plugin)
                                                  build/obj/can_lld.o (symbol from plugin)
                                                  build/obj/st_lld.o (symbol from plugin)
                                                  build/obj/stm32_dma.o (symbol from plugin)
_stats_init                                       build/obj/chstats.o (symbol from plugin)
                                                  build/obj/chsys.o (symbol from plugin)
_stats_start_measure_crit_isr                     /tmp/cc0IPsVg.ltrans2.ltrans.o
                                                  build/obj/chstats.o (symbol from plugin)
                                                  /tmp/cc0IPsVg.ltrans13.ltrans.o
                                                  /tmp/cc0IPsVg.ltrans10.ltrans.o
                                                  /tmp/cc0IPsVg.ltrans9.ltrans.o
                                                  /tmp/cc0IPsVg.ltrans8.ltrans.o
                                                  /tmp/cc0IPsVg.ltrans7.ltrans.o
                                                  /tmp/cc0IPsVg.ltrans6.ltrans.o
                                                  /tmp/cc0IPsVg.ltrans3.ltrans.o
                                                  build/obj/exti.o (symbol from plugin)
                                                  build/obj/usbcfg.o (symbol from plugin)
                                                  build/obj/dbus.o (symbol from plugin)
                                                  build/obj/evtimer.o (symbol from plugin)
                                                  build/obj/uart_lld.o (symbol from plugin)
                                                  build/obj/spi_lld.o (symbol from plugin)
                                                  build/obj/sdc_lld.o (symbol from plugin)
                                                  build/obj/usb_lld.o (symbol from plugin)
                                                  build/obj/can_lld.o (symbol from plugin)
                                                  build/obj/st_lld.o (symbol from plugin)
                                                  build/obj/usb.o (symbol from plugin)
                                                  build/obj/serial_usb.o (symbol from plugin)
                                                  build/obj/chschd.o (symbol from plugin)
                                                  build/obj/chsys.o (symbol from plugin)
_stats_start_measure_crit_thd                     /tmp/cc0IPsVg.ltrans2.ltrans.o
                                                  build/obj/chstats.o (symbol from plugin)
                                                  /tmp/cc0IPsVg.ltrans14.ltrans.o
                                                  /tmp/cc0IPsVg.ltrans13.ltrans.o
                                                  /tmp/cc0IPsVg.ltrans12.ltrans.o
                                                  /tmp/cc0IPsVg.ltrans11.ltrans.o
                                                  /tmp/cc0IPsVg.ltrans10.ltrans.o
                                                  /tmp/cc0IPsVg.ltrans8.ltrans.o
                                                  /tmp/cc0IPsVg.ltrans7.ltrans.o
                                                  /tmp/cc0IPsVg.ltrans6.ltrans.o
                                                  /tmp/cc0IPsVg.ltrans5.ltrans.o
                                                  /tmp/cc0IPsVg.ltrans4.ltrans.o
                                                  /tmp/cc0IPsVg.ltrans3.ltrans.o
                                                  /tmp/cc0IPsVg.ltrans1.ltrans.o
                                                  /tmp/cc0IPsVg.ltrans0.ltrans.o
                                                  build/obj/main.o (symbol from plugin)
                                                  build/obj/exti.o (symbol from plugin)
                                                  build/obj/feeder.o (symbol from plugin)
                                                  build/obj/params.o (symbol from plugin)
                                                  build/obj/gimbal.o (symbol from plugin)
                                                  build/obj/dbus.o (symbol from plugin)
                                                  build/obj/canBusProcess.o (symbol from plugin)
                                                  build/obj/evtimer.o (symbol from plugin)
                                                  build/obj/shell.o (symbol from plugin)
                                                  build/obj/sdc_lld.o (symbol from plugin)
                                                  build/obj/usb_lld.o (symbol from plugin)
                                                  build/obj/wdg.o (symbol from plugin)
                                                  build/obj/usb.o (symbol from plugin)
                                                  build/obj/uart.o (symbol from plugin)
                                                  build/obj/spi.o (symbol from plugin)
                                                  build/obj/serial_usb.o (symbol from plugin)
                                                  build/obj/sdc.o (symbol from plugin)
                                                  build/obj/pwm.o (symbol from plugin)
                                                  build/obj/ext.o (symbol from plugin)
                                                  build/obj/can.o (symbol from plugin)
                                                  build/obj/hal_buffers.o (symbol from plugin)
                                                  build/obj/chmempools.o (symbol from plugin)
                                                  build/obj/chmemcore.o (symbol from plugin)
                                                  build/obj/chqueues.o (symbol from plugin)
                                                  build/obj/chmboxes.o (symbol from plugin)
                                                  build/obj/chmsg.o (symbol from plugin)
                                                  build/obj/chevents.o (symbol from plugin)
                                                  build/obj/chcond.o (symbol from plugin)
                                                  build/obj/chmtx.o (symbol from plugin)
                                                  build/obj/chsem.o (symbol from plugin)
                                                  build/obj/chregistry.o (symbol from plugin)
                                                  build/obj/chdynamic.o (symbol from plugin)
                                                  build/obj/chthreads.o (symbol from plugin)
                                                  build/obj/chsys.o (symbol from plugin)
                                                  build/obj/chcoreasm_v7m.o
_stats_stop_measure_crit_isr                      /tmp/cc0IPsVg.ltrans2.ltrans.o
                                                  build/obj/chstats.o (symbol from plugin)
                                                  /tmp/cc0IPsVg.ltrans13.ltrans.o
                                                  /tmp/cc0IPsVg.ltrans10.ltrans.o
                                                  /tmp/cc0IPsVg.ltrans9.ltrans.o
                                                  /tmp/cc0IPsVg.ltrans8.ltrans.o
                                                  /tmp/cc0IPsVg.ltrans7.ltrans.o
                                                  /tmp/cc0IPsVg.ltrans6.ltrans.o
                                                  /tmp/cc0IPsVg.ltrans3.ltrans.o
                                                  build/obj/exti.o (symbol from plugin)
                                                  build/obj/usbcfg.o (symbol from plugin)
                                                  build/obj/dbus.o (symbol from plugin)
                                                  build/obj/evtimer.o (symbol from plugin)
                                                  build/obj/uart_lld.o (symbol from plugin)
                                                  build/obj/spi_lld.o (symbol from plugin)
                                                  build/obj/sdc_lld.o (symbol from plugin)
                                                  build/obj/usb_lld.o (symbol from plugin)
                                                  build/obj/can_lld.o (symbol from plugin)
                                                  build/obj/st_lld.o (symbol from plugin)
                                                  build/obj/usb.o (symbol from plugin)
                                                  build/obj/serial_usb.o (symbol from plugin)
                                                  build/obj/chschd.o (symbol from plugin)
                                                  build/obj/chsys.o (symbol from plugin)
_stats_stop_measure_crit_thd                      /tmp/cc0IPsVg.ltrans2.ltrans.o
                                                  build/obj/chstats.o (symbol from plugin)
                                                  /tmp/cc0IPsVg.ltrans14.ltrans.o
                                                  /tmp/cc0IPsVg.ltrans13.ltrans.o
                                                  /tmp/cc0IPsVg.ltrans12.ltrans.o
                                                  /tmp/cc0IPsVg.ltrans11.ltrans.o
                                                  /tmp/cc0IPsVg.ltrans10.ltrans.o
                                                  /tmp/cc0IPsVg.ltrans8.ltrans.o
                                                  /tmp/cc0IPsVg.ltrans7.ltrans.o
                                                  /tmp/cc0IPsVg.ltrans6.ltrans.o
                                                  /tmp/cc0IPsVg.ltrans5.ltrans.o
                                                  /tmp/cc0IPsVg.ltrans4.ltrans.o
                                                  /tmp/cc0IPsVg.ltrans3.ltrans.o
                                                  /tmp/cc0IPsVg.ltrans1.ltrans.o
                                                  /tmp/cc0IPsVg.ltrans0.ltrans.o
                                                  build/obj/main.o (symbol from plugin)
                                                  build/obj/exti.o (symbol from plugin)
                                                  build/obj/feeder.o (symbol from plugin)
                                                  build/obj/params.o (symbol from plugin)
                                                  build/obj/gimbal.o (symbol from plugin)
                                                  build/obj/dbus.o (symbol from plugin)
                                                  build/obj/canBusProcess.o (symbol from plugin)
                                                  build/obj/evtimer.o (symbol from plugin)
                                                  build/obj/shell.o (symbol from plugin)
                                                  build/obj/sdc_lld.o (symbol from plugin)
                                                  build/obj/usb_lld.o (symbol from plugin)
                                                  build/obj/wdg.o (symbol from plugin)
                                                  build/obj/usb.o (symbol from plugin)
                                                  build/obj/uart.o (symbol from plugin)
                                                  build/obj/spi.o (symbol from plugin)
                                                  build/obj/serial_usb.o (symbol from plugin)
                                                  build/obj/sdc.o (symbol from plugin)
                                                  build/obj/pwm.o (symbol from plugin)
                                                  build/obj/ext.o (symbol from plugin)
                                                  build/obj/can.o (symbol from plugin)
                                                  build/obj/hal_buffers.o (symbol from plugin)
                                                  build/obj/chmempools.o (symbol from plugin)
                                                  build/obj/chmemcore.o (symbol from plugin)
                                                  build/obj/chqueues.o (symbol from plugin)
                                                  build/obj/chmboxes.o (symbol from plugin)
                                                  build/obj/chmsg.o (symbol from plugin)
                                                  build/obj/chevents.o (symbol from plugin)
                                                  build/obj/chcond.o (symbol from plugin)
                                                  build/obj/chmtx.o (symbol from plugin)
                                                  build/obj/chsem.o (symbol from plugin)
                                                  build/obj/chregistry.o (symbol from plugin)
                                                  build/obj/chdynamic.o (symbol from plugin)
                                                  build/obj/chthreads.o (symbol from plugin)
                                                  build/obj/chsys.o (symbol from plugin)
                                                  build/obj/chcoreasm_v7m.o
_stm32_dma_streams                                build/obj/stm32_dma.o (symbol from plugin)
                                                  build/obj/uart_lld.o (symbol from plugin)
                                                  build/obj/spi_lld.o (symbol from plugin)
                                                  build/obj/sdc_lld.o (symbol from plugin)
_strtok.constprop.21                              /tmp/cc0IPsVg.ltrans14.ltrans.o
                                                  /tmp/cc0IPsVg.ltrans6.ltrans.o
_textdata_start                                   build/obj/crt0_v7m.o
_thread_init                                      build/obj/chthreads.o (symbol from plugin)
                                                  build/obj/chsys.o (symbol from plugin)
_thread_memfill                                   build/obj/chthreads.o (symbol from plugin)
                                                  build/obj/usb_lld.o (symbol from plugin)
                                                  build/obj/chdynamic.o (symbol from plugin)
_tm_init                                          build/obj/chtm.o (symbol from plugin)
                                                  build/obj/chsys.o (symbol from plugin)
_unhandled_exception                              build/obj/vectors.o (symbol from plugin)
_usb_ep0in                                        /tmp/cc0IPsVg.ltrans9.ltrans.o
                                                  build/obj/usb.o (symbol from plugin)
                                                  /tmp/cc0IPsVg.ltrans7.ltrans.o
                                                  build/obj/usb_lld.o (symbol from plugin)
_usb_ep0out                                       /tmp/cc0IPsVg.ltrans9.ltrans.o
                                                  build/obj/usb.o (symbol from plugin)
                                                  /tmp/cc0IPsVg.ltrans7.ltrans.o
                                                  build/obj/usb_lld.o (symbol from plugin)
_usb_ep0setup                                     /tmp/cc0IPsVg.ltrans3.ltrans.o
                                                  build/obj/usb.o (symbol from plugin)
                                                  /tmp/cc0IPsVg.ltrans7.ltrans.o
                                                  build/obj/usb_lld.o (symbol from plugin)
_usb_reset                                        build/obj/usb.o (symbol from plugin)
                                                  build/obj/usb_lld.o (symbol from plugin)
_usb_suspend                                      build/obj/usb.o (symbol from plugin)
                                                  build/obj/usb_lld.o (symbol from plugin)
_usb_wakeup                                       build/obj/usb.o (symbol from plugin)
                                                  build/obj/usb_lld.o (symbol from plugin)
_vectors                                          /tmp/cc0IPsVg.ltrans6.ltrans.o
                                                  build/obj/vectors.o (symbol from plugin)
_vt_init                                          build/obj/chvt.o (symbol from plugin)
                                                  build/obj/chsys.o (symbol from plugin)
_write_r                                          /tmp/cc0IPsVg.ltrans6.ltrans.o
                                                  build/obj/syscalls.o (symbol from plugin)
_yaw_atti.lto_priv.141                            /tmp/cc0IPsVg.ltrans0.ltrans.o
                                                  /tmp/cc0IPsVg.ltrans12.ltrans.o
_yaw_atti_name                                    build/obj/gimbal.o (symbol from plugin)
_yaw_pos.lto_priv.137                             /tmp/cc0IPsVg.ltrans0.ltrans.o
                                                  /tmp/cc0IPsVg.ltrans12.ltrans.o
_yaw_vel.lto_priv.139                             /tmp/cc0IPsVg.ltrans0.ltrans.o
                                                  /tmp/cc0IPsVg.ltrans12.ltrans.o
_yaw_vel_name                                     build/obj/gimbal.o (symbol from plugin)
accel_lpf.lto_priv.157                            /tmp/cc0IPsVg.ltrans1.ltrans.o
                                                  /tmp/cc0IPsVg.ltrans10.ltrans.o
accl_name                                         build/obj/gimbal.o (symbol from plugin)
angle_change                                      build/obj/feeder.o (symbol from plugin)
asinf                                             /usr/lib/gcc/arm-none-eabi/4.9.3/../../../arm-none-eabi/lib/armv7e-m/fpu/libm.a(lib_a-wf_asin.o)
                                                  /tmp/cc0IPsVg.ltrans12.ltrans.o
                                                  /tmp/cc0IPsVg.ltrans1.ltrans.o
atan2f                                            /usr/lib/gcc/arm-none-eabi/4.9.3/../../../arm-none-eabi/lib/armv7e-m/fpu/libm.a(lib_a-wf_atan2.o)
                                                  /tmp/cc0IPsVg.ltrans12.ltrans.o
                                                  /tmp/cc0IPsVg.ltrans1.ltrans.o
atanf                                             /usr/lib/gcc/arm-none-eabi/4.9.3/../../../arm-none-eabi/lib/armv7e-m/fpu/libm.a(lib_a-sf_atan.o)
                                                  /usr/lib/gcc/arm-none-eabi/4.9.3/../../../arm-none-eabi/lib/armv7e-m/fpu/libm.a(lib_a-ef_atan2.o)
attitude_imu_init                                 build/obj/attitude.o (symbol from plugin)
                                                  build/obj/main.o (symbol from plugin)
attitude_update                                   build/obj/attitude.o (symbol from plugin)
                                                  build/obj/main.o (symbol from plugin)
axis_ff_name                                      build/obj/gimbal.o (symbol from plugin)
boardInit                                         build/obj/board.o (symbol from plugin)
                                                  build/obj/hal.o (symbol from plugin)
button_thread_ref                                 build/obj/exti.o (symbol from plugin)
calibrate_accelerometer                           build/obj/calibrate_sensor.o (symbol from plugin)
                                                  build/obj/shellcfg.o (symbol from plugin)
calibrate_gyroscope                               build/obj/calibrate_sensor.o (symbol from plugin)
                                                  build/obj/shellcfg.o (symbol from plugin)
canInit                                           build/obj/can.o (symbol from plugin)
                                                  build/obj/hal.o (symbol from plugin)
canObjectInit                                     build/obj/can.o (symbol from plugin)
                                                  build/obj/can_lld.o (symbol from plugin)
canReceive                                        build/obj/can.o (symbol from plugin)
                                                  build/obj/canBusProcess.o (symbol from plugin)
canSTM32SetFilters                                build/obj/can_lld.o (symbol from plugin)
                                                  build/obj/canBusProcess.o (symbol from plugin)
canSleep                                          build/obj/can.o (symbol from plugin)
canStart                                          build/obj/can.o (symbol from plugin)
                                                  build/obj/canBusProcess.o (symbol from plugin)
canStop                                           build/obj/can.o (symbol from plugin)
canTransmit                                       build/obj/can.o (symbol from plugin)
                                                  build/obj/canBusProcess.o (symbol from plugin)
canTryReceiveI                                    build/obj/can.o (symbol from plugin)
canTryTransmitI                                   build/obj/can.o (symbol from plugin)
canWakeup                                         build/obj/can.o (symbol from plugin)
can_getChassisMotor                               build/obj/canBusProcess.o (symbol from plugin)
                                                  build/obj/feeder.o (symbol from plugin)
can_getGimbalMotor                                build/obj/canBusProcess.o (symbol from plugin)
                                                  build/obj/main.o (symbol from plugin)
                                                  build/obj/gimbal.o (symbol from plugin)
                                                  build/obj/shellcfg.o (symbol from plugin)
can_lld_init                                      build/obj/can_lld.o (symbol from plugin)
                                                  build/obj/can.o (symbol from plugin)
can_lld_is_rx_nonempty                            build/obj/can_lld.o (symbol from plugin)
                                                  build/obj/can.o (symbol from plugin)
can_lld_is_tx_empty                               build/obj/can_lld.o (symbol from plugin)
                                                  build/obj/can.o (symbol from plugin)
can_lld_receive                                   build/obj/can_lld.o (symbol from plugin)
                                                  build/obj/can.o (symbol from plugin)
can_lld_set_filters.constprop.66                  /tmp/cc0IPsVg.ltrans14.ltrans.o
                                                  /tmp/cc0IPsVg.ltrans0.ltrans.o
can_lld_sleep                                     build/obj/can_lld.o (symbol from plugin)
                                                  build/obj/can.o (symbol from plugin)
can_lld_start                                     build/obj/can_lld.o (symbol from plugin)
                                                  build/obj/can.o (symbol from plugin)
can_lld_stop                                      build/obj/can_lld.o (symbol from plugin)
                                                  build/obj/can.o (symbol from plugin)
can_lld_transmit                                  build/obj/can_lld.o (symbol from plugin)
                                                  build/obj/can.o (symbol from plugin)
can_lld_wakeup                                    build/obj/can_lld.o (symbol from plugin)
                                                  build/obj/can.o (symbol from plugin)
can_motorSetCurrent                               build/obj/canBusProcess.o (symbol from plugin)
                                                  build/obj/exti.o (symbol from plugin)
                                                  build/obj/feeder.o (symbol from plugin)
                                                  build/obj/gimbal.o (symbol from plugin)
can_motorSetCurrent.constprop.4                   /tmp/cc0IPsVg.ltrans14.ltrans.o
                                                  /tmp/cc0IPsVg.ltrans12.ltrans.o
                                                  /tmp/cc0IPsVg.ltrans11.ltrans.o
                                                  /tmp/cc0IPsVg.ltrans8.ltrans.o
                                                  /tmp/cc0IPsVg.ltrans0.ltrans.o
can_processInit                                   build/obj/canBusProcess.o (symbol from plugin)
                                                  build/obj/main.o (symbol from plugin)
can_rx.lto_priv.95                                /tmp/cc0IPsVg.ltrans10.ltrans.o
                                                  /tmp/cc0IPsVg.ltrans0.ltrans.o
ch                                                /tmp/cc0IPsVg.ltrans14.ltrans.o
                                                  build/obj/chschd.o (symbol from plugin)
                                                  /tmp/cc0IPsVg.ltrans13.ltrans.o
                                                  /tmp/cc0IPsVg.ltrans12.ltrans.o
                                                  /tmp/cc0IPsVg.ltrans11.ltrans.o
                                                  /tmp/cc0IPsVg.ltrans10.ltrans.o
                                                  /tmp/cc0IPsVg.ltrans9.ltrans.o
                                                  /tmp/cc0IPsVg.ltrans8.ltrans.o
                                                  /tmp/cc0IPsVg.ltrans7.ltrans.o
                                                  /tmp/cc0IPsVg.ltrans6.ltrans.o
                                                  /tmp/cc0IPsVg.ltrans5.ltrans.o
                                                  /tmp/cc0IPsVg.ltrans4.ltrans.o
                                                  /tmp/cc0IPsVg.ltrans3.ltrans.o
                                                  /tmp/cc0IPsVg.ltrans2.ltrans.o
                                                  /tmp/cc0IPsVg.ltrans1.ltrans.o
                                                  /tmp/cc0IPsVg.ltrans0.ltrans.o
                                                  build/obj/main.o (symbol from plugin)
                                                  build/obj/imu_temp.o (symbol from plugin)
                                                  build/obj/exti.o (symbol from plugin)
                                                  build/obj/feeder.o (symbol from plugin)
                                                  build/obj/shoot_pwm.o (symbol from plugin)
                                                  build/obj/params.o (symbol from plugin)
                                                  build/obj/gimbal.o (symbol from plugin)
                                                  build/obj/dbus.o (symbol from plugin)
                                                  build/obj/canBusProcess.o (symbol from plugin)
                                                  build/obj/shellcfg.o (symbol from plugin)
                                                  build/obj/evtimer.o (symbol from plugin)
                                                  build/obj/shell.o (symbol from plugin)
                                                  build/obj/sdc_lld.o (symbol from plugin)
                                                  build/obj/usb_lld.o (symbol from plugin)
                                                  build/obj/wdg.o (symbol from plugin)
                                                  build/obj/usb.o (symbol from plugin)
                                                  build/obj/uart.o (symbol from plugin)
                                                  build/obj/spi.o (symbol from plugin)
                                                  build/obj/serial_usb.o (symbol from plugin)
                                                  build/obj/sdc.o (symbol from plugin)
                                                  build/obj/pwm.o (symbol from plugin)
                                                  build/obj/ext.o (symbol from plugin)
                                                  build/obj/can.o (symbol from plugin)
                                                  build/obj/hal_buffers.o (symbol from plugin)
                                                  build/obj/chmempools.o (symbol from plugin)
                                                  build/obj/chmemcore.o (symbol from plugin)
                                                  build/obj/chqueues.o (symbol from plugin)
                                                  build/obj/chmboxes.o (symbol from plugin)
                                                  build/obj/chmsg.o (symbol from plugin)
                                                  build/obj/chevents.o (symbol from plugin)
                                                  build/obj/chcond.o (symbol from plugin)
                                                  build/obj/chmtx.o (symbol from plugin)
                                                  build/obj/chsem.o (symbol from plugin)
                                                  build/obj/chregistry.o (symbol from plugin)
                                                  build/obj/chdynamic.o (symbol from plugin)
                                                  build/obj/chstats.o (symbol from plugin)
                                                  build/obj/chtm.o (symbol from plugin)
                                                  build/obj/chthreads.o (symbol from plugin)
                                                  build/obj/chvt.o (symbol from plugin)
                                                  build/obj/chdebug.o (symbol from plugin)
                                                  build/obj/chsys.o (symbol from plugin)
chCondBroadcast                                   build/obj/chcond.o (symbol from plugin)
chCondBroadcastI                                  build/obj/chcond.o (symbol from plugin)
chCondObjectInit                                  build/obj/chcond.o (symbol from plugin)
chCondSignal                                      build/obj/chcond.o (symbol from plugin)
chCondSignalI                                     build/obj/chcond.o (symbol from plugin)
chCondWait                                        build/obj/chcond.o (symbol from plugin)
chCondWaitS                                       build/obj/chcond.o (symbol from plugin)
chCondWaitTimeout                                 build/obj/chcond.o (symbol from plugin)
chCondWaitTimeoutS                                build/obj/chcond.o (symbol from plugin)
chCoreAlloc                                       /tmp/cc0IPsVg.ltrans2.ltrans.o
                                                  build/obj/chmemcore.o (symbol from plugin)
                                                  /tmp/cc0IPsVg.ltrans6.ltrans.o
                                                  /tmp/cc0IPsVg.ltrans0.ltrans.o
                                                  build/obj/syscalls.o (symbol from plugin)
                                                  build/obj/chheap.o (symbol from plugin)
chCoreAllocI                                      build/obj/chmemcore.o (symbol from plugin)
chCoreGetStatusX                                  build/obj/chmemcore.o (symbol from plugin)
chDbgCheckClassI                                  /tmp/cc0IPsVg.ltrans2.ltrans.o
                                                  build/obj/chdebug.o (symbol from plugin)
                                                  /tmp/cc0IPsVg.ltrans13.ltrans.o
                                                  /tmp/cc0IPsVg.ltrans9.ltrans.o
                                                  /tmp/cc0IPsVg.ltrans8.ltrans.o
                                                  /tmp/cc0IPsVg.ltrans4.ltrans.o
                                                  /tmp/cc0IPsVg.ltrans3.ltrans.o
                                                  build/obj/evtimer.o (symbol from plugin)
                                                  build/obj/usb.o (symbol from plugin)
                                                  build/obj/uart.o (symbol from plugin)
                                                  build/obj/can.o (symbol from plugin)
                                                  build/obj/hal_buffers.o (symbol from plugin)
                                                  build/obj/chmempools.o (symbol from plugin)
                                                  build/obj/chmemcore.o (symbol from plugin)
                                                  build/obj/chqueues.o (symbol from plugin)
                                                  build/obj/chmboxes.o (symbol from plugin)
                                                  build/obj/chmsg.o (symbol from plugin)
                                                  build/obj/chevents.o (symbol from plugin)
                                                  build/obj/chcond.o (symbol from plugin)
                                                  build/obj/chsem.o (symbol from plugin)
                                                  build/obj/chthreads.o (symbol from plugin)
                                                  build/obj/chschd.o (symbol from plugin)
                                                  build/obj/chvt.o (symbol from plugin)
                                                  build/obj/chsys.o (symbol from plugin)
chDbgCheckClassS                                  /tmp/cc0IPsVg.ltrans2.ltrans.o
                                                  build/obj/chdebug.o (symbol from plugin)
                                                  /tmp/cc0IPsVg.ltrans14.ltrans.o
                                                  /tmp/cc0IPsVg.ltrans4.ltrans.o
                                                  /tmp/cc0IPsVg.ltrans3.ltrans.o
                                                  build/obj/hal_buffers.o (symbol from plugin)
                                                  build/obj/chmboxes.o (symbol from plugin)
                                                  build/obj/chmsg.o (symbol from plugin)
                                                  build/obj/chcond.o (symbol from plugin)
                                                  build/obj/chmtx.o (symbol from plugin)
                                                  build/obj/chsem.o (symbol from plugin)
                                                  build/obj/chthreads.o (symbol from plugin)
                                                  build/obj/chschd.o (symbol from plugin)
chEvtAddEvents                                    build/obj/chevents.o (symbol from plugin)
chEvtBroadcastFlags                               build/obj/chevents.o (symbol from plugin)
chEvtBroadcastFlagsI                              /tmp/cc0IPsVg.ltrans2.ltrans.o
                                                  build/obj/chevents.o (symbol from plugin)
                                                  /tmp/cc0IPsVg.ltrans13.ltrans.o
                                                  /tmp/cc0IPsVg.ltrans9.ltrans.o
                                                  /tmp/cc0IPsVg.ltrans8.ltrans.o
                                                  /tmp/cc0IPsVg.ltrans6.ltrans.o
                                                  build/obj/evtimer.o (symbol from plugin)
                                                  build/obj/shell.o (symbol from plugin)
                                                  build/obj/can_lld.o (symbol from plugin)
                                                  build/obj/serial_usb.o (symbol from plugin)
                                                  build/obj/can.o (symbol from plugin)
chEvtDispatch                                     build/obj/chevents.o (symbol from plugin)
chEvtGetAndClearEvents                            build/obj/chevents.o (symbol from plugin)
chEvtGetAndClearFlags                             build/obj/chevents.o (symbol from plugin)
chEvtGetAndClearFlagsI                            build/obj/chevents.o (symbol from plugin)
chEvtRegisterMaskWithFlags                        build/obj/chevents.o (symbol from plugin)
                                                  build/obj/canBusProcess.o (symbol from plugin)
chEvtSignal                                       build/obj/chevents.o (symbol from plugin)
chEvtSignalI                                      build/obj/chevents.o (symbol from plugin)
chEvtUnregister                                   build/obj/chevents.o (symbol from plugin)
                                                  build/obj/canBusProcess.o (symbol from plugin)
chEvtWaitAll                                      build/obj/chevents.o (symbol from plugin)
chEvtWaitAllTimeout                               build/obj/chevents.o (symbol from plugin)
chEvtWaitAny                                      build/obj/chevents.o (symbol from plugin)
chEvtWaitAnyTimeout                               build/obj/chevents.o (symbol from plugin)
                                                  build/obj/canBusProcess.o (symbol from plugin)
chEvtWaitOne                                      build/obj/chevents.o (symbol from plugin)
chEvtWaitOneTimeout                               build/obj/chevents.o (symbol from plugin)
chHeapAlloc                                       build/obj/chheap.o (symbol from plugin)
                                                  build/obj/chdynamic.o (symbol from plugin)
chHeapFree                                        build/obj/chheap.o (symbol from plugin)
                                                  build/obj/chdynamic.o (symbol from plugin)
chHeapObjectInit                                  build/obj/chheap.o (symbol from plugin)
chHeapStatus                                      build/obj/chheap.o (symbol from plugin)
chIQGetTimeout                                    build/obj/chqueues.o (symbol from plugin)
chIQObjectInit                                    build/obj/chqueues.o (symbol from plugin)
chIQPutI                                          build/obj/chqueues.o (symbol from plugin)
chIQReadTimeout                                   build/obj/chqueues.o (symbol from plugin)
chIQResetI                                        build/obj/chqueues.o (symbol from plugin)
chMBFetch                                         build/obj/chmboxes.o (symbol from plugin)
chMBFetchI                                        build/obj/chmboxes.o (symbol from plugin)
chMBFetchS                                        build/obj/chmboxes.o (symbol from plugin)
chMBObjectInit                                    build/obj/chmboxes.o (symbol from plugin)
chMBPost                                          build/obj/chmboxes.o (symbol from plugin)
chMBPostAhead                                     build/obj/chmboxes.o (symbol from plugin)
chMBPostAheadI                                    build/obj/chmboxes.o (symbol from plugin)
chMBPostAheadS                                    build/obj/chmboxes.o (symbol from plugin)
chMBPostI                                         build/obj/chmboxes.o (symbol from plugin)
chMBPostS                                         build/obj/chmboxes.o (symbol from plugin)
chMBReset                                         build/obj/chmboxes.o (symbol from plugin)
chMBResetI                                        build/obj/chmboxes.o (symbol from plugin)
chMsgRelease                                      build/obj/chmsg.o (symbol from plugin)
chMsgSend                                         build/obj/chmsg.o (symbol from plugin)
chMsgWait                                         build/obj/chmsg.o (symbol from plugin)
chMtxLock                                         build/obj/chmtx.o (symbol from plugin)
                                                  build/obj/spi.o (symbol from plugin)
                                                  build/obj/chheap.o (symbol from plugin)
chMtxLockS                                        build/obj/chmtx.o (symbol from plugin)
                                                  build/obj/chcond.o (symbol from plugin)
chMtxObjectInit                                   build/obj/chmtx.o (symbol from plugin)
                                                  build/obj/spi.o (symbol from plugin)
                                                  build/obj/chheap.o (symbol from plugin)
chMtxTryLock                                      build/obj/chmtx.o (symbol from plugin)
chMtxTryLockS                                     build/obj/chmtx.o (symbol from plugin)
chMtxUnlock                                       build/obj/chmtx.o (symbol from plugin)
                                                  build/obj/spi.o (symbol from plugin)
                                                  build/obj/chheap.o (symbol from plugin)
chMtxUnlockAll                                    build/obj/chmtx.o (symbol from plugin)
chMtxUnlockS                                      build/obj/chmtx.o (symbol from plugin)
                                                  build/obj/chcond.o (symbol from plugin)
chOQGetI                                          build/obj/chqueues.o (symbol from plugin)
chOQObjectInit                                    build/obj/chqueues.o (symbol from plugin)
chOQPutTimeout                                    build/obj/chqueues.o (symbol from plugin)
chOQResetI                                        build/obj/chqueues.o (symbol from plugin)
chOQWriteTimeout                                  build/obj/chqueues.o (symbol from plugin)
chPoolAlloc                                       build/obj/chmempools.o (symbol from plugin)
                                                  build/obj/chdynamic.o (symbol from plugin)
chPoolAllocI                                      build/obj/chmempools.o (symbol from plugin)
chPoolFree                                        build/obj/chmempools.o (symbol from plugin)
                                                  build/obj/chdynamic.o (symbol from plugin)
chPoolFreeI                                       build/obj/chmempools.o (symbol from plugin)
chPoolLoadArray                                   build/obj/chmempools.o (symbol from plugin)
chPoolObjectInit                                  build/obj/chmempools.o (symbol from plugin)
chRegFirstThread                                  build/obj/chregistry.o (symbol from plugin)
chRegNextThread                                   build/obj/chregistry.o (symbol from plugin)
chSchDoReschedule                                 /tmp/cc0IPsVg.ltrans2.ltrans.o
                                                  build/obj/chschd.o (symbol from plugin)
                                                  build/obj/chcoreasm_v7m.o
chSchDoRescheduleAhead                            build/obj/chschd.o (symbol from plugin)
chSchDoRescheduleBehind                           build/obj/chschd.o (symbol from plugin)
                                                  build/obj/chthreads.o (symbol from plugin)
chSchGoSleepS                                     /tmp/cc0IPsVg.ltrans2.ltrans.o
                                                  build/obj/chschd.o (symbol from plugin)
                                                  /tmp/cc0IPsVg.ltrans3.ltrans.o
                                                  build/obj/chmsg.o (symbol from plugin)
                                                  build/obj/chevents.o (symbol from plugin)
                                                  build/obj/chcond.o (symbol from plugin)
                                                  build/obj/chmtx.o (symbol from plugin)
                                                  build/obj/chsem.o (symbol from plugin)
                                                  build/obj/chthreads.o (symbol from plugin)
chSchGoSleepTimeoutS                              /tmp/cc0IPsVg.ltrans2.ltrans.o
                                                  build/obj/chschd.o (symbol from plugin)
                                                  /tmp/cc0IPsVg.ltrans11.ltrans.o
                                                  /tmp/cc0IPsVg.ltrans10.ltrans.o
                                                  /tmp/cc0IPsVg.ltrans0.ltrans.o
                                                  build/obj/can_lld.o (symbol from plugin)
                                                  build/obj/chevents.o (symbol from plugin)
                                                  build/obj/chcond.o (symbol from plugin)
                                                  build/obj/chsem.o (symbol from plugin)
                                                  build/obj/chthreads.o (symbol from plugin)
chSchIsPreemptionRequired                         build/obj/chschd.o (symbol from plugin)
                                                  build/obj/chcore_v7m.o (symbol from plugin)
chSchReadyI                                       /tmp/cc0IPsVg.ltrans2.ltrans.o
                                                  build/obj/chschd.o (symbol from plugin)
                                                  /tmp/cc0IPsVg.ltrans14.ltrans.o
                                                  /tmp/cc0IPsVg.ltrans13.ltrans.o
                                                  /tmp/cc0IPsVg.ltrans3.ltrans.o
                                                  /tmp/cc0IPsVg.ltrans0.ltrans.o
                                                  build/obj/usb_lld.o (symbol from plugin)
                                                  build/obj/chmsg.o (symbol from plugin)
                                                  build/obj/chevents.o (symbol from plugin)
                                                  build/obj/chcond.o (symbol from plugin)
                                                  build/obj/chmtx.o (symbol from plugin)
                                                  build/obj/chsem.o (symbol from plugin)
                                                  build/obj/chthreads.o (symbol from plugin)
chSchRescheduleS                                  /tmp/cc0IPsVg.ltrans2.ltrans.o
                                                  build/obj/chschd.o (symbol from plugin)
                                                  /tmp/cc0IPsVg.ltrans3.ltrans.o
                                                  /tmp/cc0IPsVg.ltrans0.ltrans.o
                                                  build/obj/usb_lld.o (symbol from plugin)
                                                  build/obj/usb.o (symbol from plugin)
                                                  build/obj/serial_usb.o (symbol from plugin)
                                                  build/obj/can.o (symbol from plugin)
                                                  build/obj/chmboxes.o (symbol from plugin)
                                                  build/obj/chevents.o (symbol from plugin)
                                                  build/obj/chcond.o (symbol from plugin)
                                                  build/obj/chmtx.o (symbol from plugin)
                                                  build/obj/chsem.o (symbol from plugin)
                                                  build/obj/chthreads.o (symbol from plugin)
                                                  build/obj/chsys.o (symbol from plugin)
chSchWakeupS                                      build/obj/chschd.o (symbol from plugin)
                                                  build/obj/chmsg.o (symbol from plugin)
                                                  build/obj/chcond.o (symbol from plugin)
                                                  build/obj/chsem.o (symbol from plugin)
                                                  build/obj/chdynamic.o (symbol from plugin)
                                                  build/obj/chthreads.o (symbol from plugin)
chSchWakeupS.constprop.76                         /tmp/cc0IPsVg.ltrans14.ltrans.o
                                                  /tmp/cc0IPsVg.ltrans2.ltrans.o
chSemAddCounterI                                  build/obj/chsem.o (symbol from plugin)
chSemObjectInit                                   build/obj/chsem.o (symbol from plugin)
                                                  build/obj/chmboxes.o (symbol from plugin)
chSemReset                                        build/obj/chsem.o (symbol from plugin)
chSemResetI                                       build/obj/chsem.o (symbol from plugin)
                                                  build/obj/chmboxes.o (symbol from plugin)
chSemSignal                                       build/obj/chsem.o (symbol from plugin)
chSemSignalI                                      build/obj/chsem.o (symbol from plugin)
                                                  build/obj/chmboxes.o (symbol from plugin)
chSemSignalWait                                   build/obj/chsem.o (symbol from plugin)
chSemWait                                         build/obj/chsem.o (symbol from plugin)
chSemWaitS                                        build/obj/chsem.o (symbol from plugin)
chSemWaitTimeout                                  build/obj/chsem.o (symbol from plugin)
chSemWaitTimeoutS                                 build/obj/chsem.o (symbol from plugin)
                                                  build/obj/chmboxes.o (symbol from plugin)
chSysGetStatusAndLockX                            build/obj/chsys.o (symbol from plugin)
chSysHalt                                         build/obj/chsys.o (symbol from plugin)
                                                  build/obj/main.o (symbol from plugin)
                                                  build/obj/exti.o (symbol from plugin)
                                                  build/obj/feeder.o (symbol from plugin)
                                                  build/obj/params.o (symbol from plugin)
                                                  build/obj/gimbal.o (symbol from plugin)
                                                  build/obj/dbus.o (symbol from plugin)
                                                  build/obj/canBusProcess.o (symbol from plugin)
                                                  build/obj/syscalls.o (symbol from plugin)
                                                  build/obj/evtimer.o (symbol from plugin)
                                                  build/obj/shell.o (symbol from plugin)
                                                  build/obj/wdg_lld.o (symbol from plugin)
                                                  build/obj/uart_lld.o (symbol from plugin)
                                                  build/obj/pwm_lld.o (symbol from plugin)
                                                  build/obj/spi_lld.o (symbol from plugin)
                                                  build/obj/sdc_lld.o (symbol from plugin)
                                                  build/obj/usb_lld.o (symbol from plugin)
                                                  build/obj/can_lld.o (symbol from plugin)
                                                  build/obj/stm32_dma.o (symbol from plugin)
                                                  build/obj/nvic.o (symbol from plugin)
                                                  build/obj/wdg.o (symbol from plugin)
                                                  build/obj/usb.o (symbol from plugin)
                                                  build/obj/uart.o (symbol from plugin)
                                                  build/obj/spi.o (symbol from plugin)
                                                  build/obj/serial_usb.o (symbol from plugin)
                                                  build/obj/sdc.o (symbol from plugin)
                                                  build/obj/pwm.o (symbol from plugin)
                                                  build/obj/pal.o (symbol from plugin)
                                                  build/obj/ext.o (symbol from plugin)
                                                  build/obj/can.o (symbol from plugin)
                                                  build/obj/hal_mmcsd.o (symbol from plugin)
                                                  build/obj/hal_buffers.o (symbol from plugin)
                                                  build/obj/st.o (symbol from plugin)
                                                  build/obj/chmempools.o (symbol from plugin)
                                                  build/obj/chheap.o (symbol from plugin)
                                                  build/obj/chmemcore.o (symbol from plugin)
                                                  build/obj/chqueues.o (symbol from plugin)
                                                  build/obj/chmboxes.o (symbol from plugin)
                                                  build/obj/chmsg.o (symbol from plugin)
                                                  build/obj/chevents.o (symbol from plugin)
                                                  build/obj/chcond.o (symbol from plugin)
                                                  build/obj/chmtx.o (symbol from plugin)
                                                  build/obj/chsem.o (symbol from plugin)
                                                  build/obj/chregistry.o (symbol from plugin)
                                                  build/obj/chdynamic.o (symbol from plugin)
                                                  build/obj/chthreads.o (symbol from plugin)
                                                  build/obj/chschd.o (symbol from plugin)
                                                  build/obj/chvt.o (symbol from plugin)
                                                  build/obj/chdebug.o (symbol from plugin)
chSysInit                                         build/obj/chsys.o (symbol from plugin)
                                                  build/obj/main.o (symbol from plugin)
chSysIntegrityCheckI                              build/obj/chsys.o (symbol from plugin)
chSysIsCounterWithinX                             build/obj/chsys.o (symbol from plugin)
chSysPolledDelayX                                 /tmp/cc0IPsVg.ltrans2.ltrans.o
                                                  build/obj/chsys.o (symbol from plugin)
                                                  /tmp/cc0IPsVg.ltrans7.ltrans.o
                                                  /tmp/cc0IPsVg.ltrans3.ltrans.o
                                                  /tmp/cc0IPsVg.ltrans0.ltrans.o
                                                  build/obj/usb_lld.o (symbol from plugin)
chSysRestoreStatusX                               build/obj/chsys.o (symbol from plugin)
chSysTimerHandlerI                                build/obj/chsys.o (symbol from plugin)
                                                  build/obj/st_lld.o (symbol from plugin)
chTMChainMeasurementToX                           /tmp/cc0IPsVg.ltrans2.ltrans.o
                                                  build/obj/chtm.o (symbol from plugin)
                                                  /tmp/cc0IPsVg.ltrans14.ltrans.o
                                                  build/obj/chstats.o (symbol from plugin)
chTMObjectInit                                    build/obj/chtm.o (symbol from plugin)
                                                  build/obj/chstats.o (symbol from plugin)
                                                  build/obj/chthreads.o (symbol from plugin)
chTMStartMeasurementX                             /tmp/cc0IPsVg.ltrans2.ltrans.o
                                                  build/obj/chtm.o (symbol from plugin)
                                                  /tmp/cc0IPsVg.ltrans0.ltrans.o
                                                  build/obj/chstats.o (symbol from plugin)
                                                  build/obj/chsys.o (symbol from plugin)
chTMStopMeasurementX                              /tmp/cc0IPsVg.ltrans2.ltrans.o
                                                  build/obj/chtm.o (symbol from plugin)
                                                  /tmp/cc0IPsVg.ltrans0.ltrans.o
                                                  build/obj/chstats.o (symbol from plugin)
chThdAddRef                                       build/obj/chdynamic.o (symbol from plugin)
chThdCreateFromHeap                               build/obj/chdynamic.o (symbol from plugin)
                                                  build/obj/shell.o (symbol from plugin)
chThdCreateFromMemoryPool                         build/obj/chdynamic.o (symbol from plugin)
chThdCreateI                                      /tmp/cc0IPsVg.ltrans2.ltrans.o
                                                  build/obj/chthreads.o (symbol from plugin)
                                                  /tmp/cc0IPsVg.ltrans0.ltrans.o
                                                  build/obj/usb_lld.o (symbol from plugin)
                                                  build/obj/chdynamic.o (symbol from plugin)
chThdCreateStatic                                 /tmp/cc0IPsVg.ltrans2.ltrans.o
                                                  build/obj/chthreads.o (symbol from plugin)
                                                  /tmp/cc0IPsVg.ltrans5.ltrans.o
                                                  /tmp/cc0IPsVg.ltrans1.ltrans.o
                                                  /tmp/cc0IPsVg.ltrans0.ltrans.o
                                                  build/obj/main.o (symbol from plugin)
                                                  build/obj/imu_temp.o (symbol from plugin)
                                                  build/obj/exti.o (symbol from plugin)
                                                  build/obj/feeder.o (symbol from plugin)
                                                  build/obj/shoot_pwm.o (symbol from plugin)
                                                  build/obj/gimbal.o (symbol from plugin)
                                                  build/obj/dbus.o (symbol from plugin)
                                                  build/obj/canBusProcess.o (symbol from plugin)
                                                  build/obj/shellcfg.o (symbol from plugin)
                                                  build/obj/sdlog.o (symbol from plugin)
                                                  build/obj/shell.o (symbol from plugin)
                                                  build/obj/chsys.o (symbol from plugin)
chThdDequeueAllI                                  /tmp/cc0IPsVg.ltrans2.ltrans.o
                                                  build/obj/chthreads.o (symbol from plugin)
                                                  /tmp/cc0IPsVg.ltrans9.ltrans.o
                                                  /tmp/cc0IPsVg.ltrans8.ltrans.o
                                                  build/obj/can_lld.o (symbol from plugin)
                                                  build/obj/can.o (symbol from plugin)
                                                  build/obj/hal_buffers.o (symbol from plugin)
                                                  build/obj/chqueues.o (symbol from plugin)
chThdDequeueNextI                                 build/obj/chthreads.o (symbol from plugin)
                                                  build/obj/hal_buffers.o (symbol from plugin)
                                                  build/obj/chqueues.o (symbol from plugin)
chThdEnqueueTimeoutS                              /tmp/cc0IPsVg.ltrans2.ltrans.o
                                                  build/obj/chthreads.o (symbol from plugin)
                                                  /tmp/cc0IPsVg.ltrans14.ltrans.o
                                                  /tmp/cc0IPsVg.ltrans4.ltrans.o
                                                  build/obj/can.o (symbol from plugin)
                                                  build/obj/hal_buffers.o (symbol from plugin)
                                                  build/obj/chqueues.o (symbol from plugin)
chThdExit                                         /tmp/cc0IPsVg.ltrans2.ltrans.o
                                                  build/obj/chthreads.o (symbol from plugin)
                                                  /tmp/cc0IPsVg.ltrans12.ltrans.o
                                                  /tmp/cc0IPsVg.ltrans8.ltrans.o
                                                  build/obj/imu_temp.o (symbol from plugin)
                                                  build/obj/gimbal.o (symbol from plugin)
                                                  build/obj/chcoreasm_v7m.o
chThdExitS                                        /tmp/cc0IPsVg.ltrans2.ltrans.o
                                                  build/obj/chthreads.o (symbol from plugin)
                                                  /tmp/cc0IPsVg.ltrans12.ltrans.o
                                                  /tmp/cc0IPsVg.ltrans6.ltrans.o
                                                  build/obj/gimbal.o (symbol from plugin)
                                                  build/obj/shell.o (symbol from plugin)
chThdRelease                                      build/obj/chdynamic.o (symbol from plugin)
                                                  build/obj/chregistry.o (symbol from plugin)
                                                  build/obj/chthreads.o (symbol from plugin)
chThdResume                                       build/obj/chthreads.o (symbol from plugin)
                                                  build/obj/shellcfg.o (symbol from plugin)
chThdResumeI                                      /tmp/cc0IPsVg.ltrans2.ltrans.o
                                                  build/obj/chthreads.o (symbol from plugin)
                                                  /tmp/cc0IPsVg.ltrans10.ltrans.o
                                                  /tmp/cc0IPsVg.ltrans7.ltrans.o
                                                  /tmp/cc0IPsVg.ltrans6.ltrans.o
                                                  build/obj/exti.o (symbol from plugin)
                                                  build/obj/dbus.o (symbol from plugin)
                                                  build/obj/uart_lld.o (symbol from plugin)
                                                  build/obj/spi_lld.o (symbol from plugin)
                                                  build/obj/sdc_lld.o (symbol from plugin)
                                                  build/obj/usb_lld.o (symbol from plugin)
chThdResumeS                                      build/obj/chthreads.o (symbol from plugin)
                                                  build/obj/gimbal.o (symbol from plugin)
chThdResumeS.constprop.73                         /tmp/cc0IPsVg.ltrans14.ltrans.o
                                                  /tmp/cc0IPsVg.ltrans12.ltrans.o
                                                  /tmp/cc0IPsVg.ltrans5.ltrans.o
chThdSetPriority                                  build/obj/chthreads.o (symbol from plugin)
chThdSleep                                        /tmp/cc0IPsVg.ltrans2.ltrans.o
                                                  build/obj/chthreads.o (symbol from plugin)
                                                  /tmp/cc0IPsVg.ltrans12.ltrans.o
                                                  /tmp/cc0IPsVg.ltrans10.ltrans.o
                                                  /tmp/cc0IPsVg.ltrans8.ltrans.o
                                                  /tmp/cc0IPsVg.ltrans6.ltrans.o
                                                  /tmp/cc0IPsVg.ltrans5.ltrans.o
                                                  /tmp/cc0IPsVg.ltrans4.ltrans.o
                                                  /tmp/cc0IPsVg.ltrans1.ltrans.o
                                                  /tmp/cc0IPsVg.ltrans0.ltrans.o
                                                  build/obj/main.o (symbol from plugin)
                                                  build/obj/exti.o (symbol from plugin)
                                                  build/obj/feeder.o (symbol from plugin)
                                                  build/obj/shoot_pwm.o (symbol from plugin)
                                                  build/obj/calibrate_sensor.o (symbol from plugin)
                                                  build/obj/params.o (symbol from plugin)
                                                  build/obj/gimbal.o (symbol from plugin)
                                                  build/obj/canBusProcess.o (symbol from plugin)
                                                  build/obj/ist8310.o (symbol from plugin)
                                                  build/obj/mpu6500.o (symbol from plugin)
                                                  build/obj/shellcfg.o (symbol from plugin)
                                                  build/obj/shell.o (symbol from plugin)
                                                  build/obj/sdc_lld.o (symbol from plugin)
                                                  build/obj/sdc.o (symbol from plugin)
chThdSleepUntil                                   /tmp/cc0IPsVg.ltrans2.ltrans.o
                                                  build/obj/chthreads.o (symbol from plugin)
                                                  /tmp/cc0IPsVg.ltrans12.ltrans.o
                                                  /tmp/cc0IPsVg.ltrans8.ltrans.o
                                                  /tmp/cc0IPsVg.ltrans5.ltrans.o
                                                  /tmp/cc0IPsVg.ltrans1.ltrans.o
                                                  build/obj/main.o (symbol from plugin)
                                                  build/obj/imu_temp.o (symbol from plugin)
                                                  build/obj/gimbal.o (symbol from plugin)
                                                  build/obj/shellcfg.o (symbol from plugin)
                                                  build/obj/sdlog.o (symbol from plugin)
chThdSleepUntilWindowed                           build/obj/chthreads.o (symbol from plugin)
chThdStart                                        build/obj/chthreads.o (symbol from plugin)
chThdSuspendS                                     /tmp/cc0IPsVg.ltrans2.ltrans.o
                                                  build/obj/chthreads.o (symbol from plugin)
                                                  /tmp/cc0IPsVg.ltrans12.ltrans.o
                                                  /tmp/cc0IPsVg.ltrans7.ltrans.o
                                                  /tmp/cc0IPsVg.ltrans3.ltrans.o
                                                  /tmp/cc0IPsVg.ltrans1.ltrans.o
                                                  build/obj/main.o (symbol from plugin)
                                                  build/obj/exti.o (symbol from plugin)
                                                  build/obj/gimbal.o (symbol from plugin)
                                                  build/obj/sdc_lld.o (symbol from plugin)
                                                  build/obj/usb_lld.o (symbol from plugin)
                                                  build/obj/spi.o (symbol from plugin)
chThdSuspendTimeoutS                              build/obj/chthreads.o (symbol from plugin)
                                                  build/obj/dbus.o (symbol from plugin)
                                                  build/obj/uart.o (symbol from plugin)
chThdTerminate                                    build/obj/chthreads.o (symbol from plugin)
                                                  build/obj/shellcfg.o (symbol from plugin)
chThdWait                                         build/obj/chthreads.o (symbol from plugin)
chThdYield                                        build/obj/chthreads.o (symbol from plugin)
chVTDoResetI                                      build/obj/chvt.o (symbol from plugin)
                                                  build/obj/evtimer.o (symbol from plugin)
                                                  build/obj/chschd.o (symbol from plugin)
chVTDoSetI                                        build/obj/chvt.o (symbol from plugin)
                                                  build/obj/evtimer.o (symbol from plugin)
                                                  build/obj/chschd.o (symbol from plugin)
ch_debug                                          build/obj/chregistry.o (symbol from plugin)
                                                  build/obj/chsys.o (symbol from plugin)
chassis_encoder.lto_priv.154                      /tmp/cc0IPsVg.ltrans0.ltrans.o
                                                  /tmp/cc0IPsVg.ltrans10.ltrans.o
chprintf                                          /tmp/cc0IPsVg.ltrans5.ltrans.o
                                                  build/obj/chprintf.o (symbol from plugin)
                                                  /tmp/cc0IPsVg.ltrans10.ltrans.o
                                                  /tmp/cc0IPsVg.ltrans6.ltrans.o
                                                  build/obj/calibrate_sensor.o (symbol from plugin)
                                                  build/obj/shellcfg.o (symbol from plugin)
                                                  build/obj/shell.o (symbol from plugin)
chsnprintf                                        build/obj/chprintf.o (symbol from plugin)
chvprintf                                         build/obj/chprintf.o (symbol from plugin)
clust2sect                                        build/obj/ff.o (symbol from plugin)
cmd_calibrate                                     /tmp/cc0IPsVg.ltrans5.ltrans.o
                                                  build/obj/shellcfg.o (symbol from plugin)
                                                  /tmp/cc0IPsVg.ltrans0.ltrans.o
cmd_data                                          /tmp/cc0IPsVg.ltrans5.ltrans.o
                                                  build/obj/shellcfg.o (symbol from plugin)
                                                  /tmp/cc0IPsVg.ltrans0.ltrans.o
cmd_param_rx                                      /tmp/cc0IPsVg.ltrans12.ltrans.o
                                                  build/obj/params.o (symbol from plugin)
                                                  /tmp/cc0IPsVg.ltrans0.ltrans.o
                                                  build/obj/shellcfg.o (symbol from plugin)
cmd_param_scale                                   /tmp/cc0IPsVg.ltrans12.ltrans.o
                                                  build/obj/params.o (symbol from plugin)
                                                  /tmp/cc0IPsVg.ltrans0.ltrans.o
                                                  build/obj/shellcfg.o (symbol from plugin)
cmd_param_tx                                      /tmp/cc0IPsVg.ltrans12.ltrans.o
                                                  build/obj/params.o (symbol from plugin)
                                                  /tmp/cc0IPsVg.ltrans0.ltrans.o
                                                  build/obj/shellcfg.o (symbol from plugin)
cmd_param_update                                  /tmp/cc0IPsVg.ltrans12.ltrans.o
                                                  build/obj/params.o (symbol from plugin)
                                                  /tmp/cc0IPsVg.ltrans0.ltrans.o
                                                  build/obj/shellcfg.o (symbol from plugin)
cmd_temp                                          /tmp/cc0IPsVg.ltrans10.ltrans.o
                                                  build/obj/shellcfg.o (symbol from plugin)
                                                  /tmp/cc0IPsVg.ltrans0.ltrans.o
cmd_test                                          /tmp/cc0IPsVg.ltrans5.ltrans.o
                                                  build/obj/shellcfg.o (symbol from plugin)
                                                  /tmp/cc0IPsVg.ltrans0.ltrans.o
copysignf                                         /usr/lib/gcc/arm-none-eabi/4.9.3/../../../arm-none-eabi/lib/armv7e-m/fpu/libm.a(lib_a-sf_copysign.o)
                                                  /usr/lib/gcc/arm-none-eabi/4.9.3/../../../arm-none-eabi/lib/armv7e-m/fpu/libm.a(lib_a-sf_scalbn.o)
cosf                                              /usr/lib/gcc/arm-none-eabi/4.9.3/../../../arm-none-eabi/lib/armv7e-m/fpu/libm.a(lib_a-sf_cos.o)
                                                  /tmp/cc0IPsVg.ltrans12.ltrans.o
                                                  /tmp/cc0IPsVg.ltrans1.ltrans.o
disk_initialize                                   build/obj/fatfs_diskio.o (symbol from plugin)
                                                  build/obj/ff.o (symbol from plugin)
disk_ioctl                                        build/obj/fatfs_diskio.o (symbol from plugin)
                                                  build/obj/ff.o (symbol from plugin)
disk_read                                         build/obj/fatfs_diskio.o (symbol from plugin)
                                                  build/obj/ff.o (symbol from plugin)
disk_status                                       build/obj/fatfs_diskio.o (symbol from plugin)
                                                  build/obj/ff.o (symbol from plugin)
disk_write                                        build/obj/fatfs_diskio.o (symbol from plugin)
                                                  build/obj/ff.o (symbol from plugin)
dmaInit                                           build/obj/stm32_dma.o (symbol from plugin)
                                                  build/obj/hal_lld.o (symbol from plugin)
dmaStreamAllocate                                 /tmp/cc0IPsVg.ltrans9.ltrans.o
                                                  build/obj/stm32_dma.o (symbol from plugin)
                                                  /tmp/cc0IPsVg.ltrans11.ltrans.o
                                                  /tmp/cc0IPsVg.ltrans1.ltrans.o
                                                  build/obj/uart_lld.o (symbol from plugin)
                                                  build/obj/spi_lld.o (symbol from plugin)
                                                  build/obj/sdc_lld.o (symbol from plugin)
dmaStreamRelease                                  build/obj/stm32_dma.o (symbol from plugin)
                                                  build/obj/dbus.o (symbol from plugin)
                                                  build/obj/uart_lld.o (symbol from plugin)
                                                  build/obj/spi_lld.o (symbol from plugin)
                                                  build/obj/sdc_lld.o (symbol from plugin)
dma_isr_redir.lto_priv.166                        /tmp/cc0IPsVg.ltrans0.ltrans.o
                                                  /tmp/cc0IPsVg.ltrans9.ltrans.o
dma_streams_mask.lto_priv.149                     /tmp/cc0IPsVg.ltrans0.ltrans.o
                                                  /tmp/cc0IPsVg.ltrans11.ltrans.o
                                                  /tmp/cc0IPsVg.ltrans9.ltrans.o
dummytx.lto_priv.172                              /tmp/cc0IPsVg.ltrans0.ltrans.o
                                                  /tmp/cc0IPsVg.ltrans3.ltrans.o
endmem.lto_priv.181                               /tmp/cc0IPsVg.ltrans0.ltrans.o
                                                  /tmp/cc0IPsVg.ltrans2.ltrans.o
error_angle_change                                build/obj/feeder.o (symbol from plugin)
error_count                                       build/obj/feeder.o (symbol from plugin)
evtObjectInit                                     build/obj/evtimer.o (symbol from plugin)
evtStart                                          build/obj/evtimer.o (symbol from plugin)
extChannelDisable                                 build/obj/ext.o (symbol from plugin)
extChannelEnable                                  build/obj/ext.o (symbol from plugin)
                                                  build/obj/exti.o (symbol from plugin)
extInit                                           build/obj/ext.o (symbol from plugin)
                                                  build/obj/hal.o (symbol from plugin)
extObjectInit                                     build/obj/ext.o (symbol from plugin)
                                                  build/obj/ext_lld.o (symbol from plugin)
extSetChannelModeI                                build/obj/ext.o (symbol from plugin)
extStart                                          build/obj/ext.o (symbol from plugin)
                                                  build/obj/exti.o (symbol from plugin)
extStop                                           build/obj/ext.o (symbol from plugin)
ext_lld_channel_disable                           build/obj/ext_lld.o (symbol from plugin)
                                                  build/obj/ext.o (symbol from plugin)
ext_lld_channel_enable                            build/obj/ext_lld.o (symbol from plugin)
                                                  build/obj/ext.o (symbol from plugin)
ext_lld_exti_irq_disable                          build/obj/ext_lld_isr.o (symbol from plugin)
                                                  build/obj/ext_lld.o (symbol from plugin)
ext_lld_exti_irq_enable                           build/obj/ext_lld_isr.o (symbol from plugin)
                                                  build/obj/ext_lld.o (symbol from plugin)
ext_lld_init                                      build/obj/ext_lld.o (symbol from plugin)
                                                  build/obj/ext.o (symbol from plugin)
ext_lld_start                                     build/obj/ext_lld.o (symbol from plugin)
                                                  build/obj/ext.o (symbol from plugin)
ext_lld_stop                                      build/obj/ext_lld.o (symbol from plugin)
                                                  build/obj/ext.o (symbol from plugin)
extiinit                                          build/obj/exti.o (symbol from plugin)
f_close                                           build/obj/ff.o (symbol from plugin)
                                                  build/obj/sdlog.o (symbol from plugin)
f_lseek                                           build/obj/ff.o (symbol from plugin)
                                                  build/obj/sdlog.o (symbol from plugin)
f_mount                                           build/obj/ff.o (symbol from plugin)
                                                  build/obj/sdlog.o (symbol from plugin)
f_open                                            build/obj/ff.o (symbol from plugin)
                                                  build/obj/sdlog.o (symbol from plugin)
f_read                                            build/obj/ff.o (symbol from plugin)
f_sync                                            build/obj/ff.o (symbol from plugin)
                                                  build/obj/sdlog.o (symbol from plugin)
f_write                                           build/obj/ff.o (symbol from plugin)
                                                  build/obj/sdlog.o (symbol from plugin)
fabsf                                             /usr/lib/gcc/arm-none-eabi/4.9.3/../../../arm-none-eabi/lib/armv7e-m/fpu/libm.a(lib_a-sf_fabs.o)
                                                  /usr/lib/gcc/arm-none-eabi/4.9.3/../../../arm-none-eabi/lib/armv7e-m/fpu/libm.a(lib_a-sf_atan.o)
                                                  /usr/lib/gcc/arm-none-eabi/4.9.3/../../../arm-none-eabi/lib/armv7e-m/fpu/libm.a(lib_a-kf_tan.o)
                                                  /usr/lib/gcc/arm-none-eabi/4.9.3/../../../arm-none-eabi/lib/armv7e-m/fpu/libm.a(lib_a-ef_rem_pio2.o)
                                                  /usr/lib/gcc/arm-none-eabi/4.9.3/../../../arm-none-eabi/lib/armv7e-m/fpu/libm.a(lib_a-ef_atan2.o)
                                                  /usr/lib/gcc/arm-none-eabi/4.9.3/../../../arm-none-eabi/lib/armv7e-m/fpu/libm.a(lib_a-ef_asin.o)
                                                  /usr/lib/gcc/arm-none-eabi/4.9.3/../../../arm-none-eabi/lib/armv7e-m/fpu/libm.a(lib_a-wf_asin.o)
feederInit                                        build/obj/feeder.o (symbol from plugin)
                                                  build/obj/main.o (symbol from plugin)
feeder_control.lto_priv.89                        /tmp/cc0IPsVg.ltrans8.ltrans.o
                                                  /tmp/cc0IPsVg.ltrans0.ltrans.o
feeder_encode                                     /tmp/cc0IPsVg.ltrans0.ltrans.o
                                                  build/obj/feeder.o (symbol from plugin)
                                                  /tmp/cc0IPsVg.ltrans8.ltrans.o
feeder_func                                       build/obj/feeder.o (symbol from plugin)
ff_convert                                        build/obj/unicode.o (symbol from plugin)
                                                  build/obj/ff.o (symbol from plugin)
ff_int_name                                       build/obj/gimbal.o (symbol from plugin)
ff_wtoupper                                       build/obj/unicode.o (symbol from plugin)
                                                  build/obj/ff.o (symbol from plugin)
flashRead                                         /tmp/cc0IPsVg.ltrans5.ltrans.o
                                                  build/obj/flash.o (symbol from plugin)
                                                  /tmp/cc0IPsVg.ltrans8.ltrans.o
                                                  build/obj/params.o (symbol from plugin)
flashReadData                                     build/obj/flash.o (symbol from plugin)
flashSectorAt                                     build/obj/flash.o (symbol from plugin)
flashSectorBegin                                  build/obj/flash.o (symbol from plugin)
flashSectorEnd                                    build/obj/flash.o (symbol from plugin)
flashSectorErase                                  build/obj/flash.o (symbol from plugin)
                                                  build/obj/params.o (symbol from plugin)
flashSectorSize                                   build/obj/flash.o (symbol from plugin)
flashUnlock.part.1.lto_priv.125                   /tmp/cc0IPsVg.ltrans5.ltrans.o
                                                  /tmp/cc0IPsVg.ltrans8.ltrans.o
flashWrite                                        build/obj/flash.o (symbol from plugin)
                                                  build/obj/params.o (symbol from plugin)
flashWrite.part.5.lto_priv.124                    /tmp/cc0IPsVg.ltrans5.ltrans.o
                                                  /tmp/cc0IPsVg.ltrans8.ltrans.o
flashWriteData                                    build/obj/flash.o (symbol from plugin)
floorf                                            /usr/lib/gcc/arm-none-eabi/4.9.3/../../../arm-none-eabi/lib/armv7e-m/fpu/libm.a(lib_a-sf_floor.o)
                                                  /usr/lib/gcc/arm-none-eabi/4.9.3/../../../arm-none-eabi/lib/armv7e-m/fpu/libm.a(lib_a-kf_rem_pio2.o)
g_IMU1                                            /tmp/cc0IPsVg.ltrans0.ltrans.o
                                                  build/obj/mpu6500.o (symbol from plugin)
                                                  /tmp/cc0IPsVg.ltrans10.ltrans.o
                                                  /tmp/cc0IPsVg.ltrans8.ltrans.o
                                                  /tmp/cc0IPsVg.ltrans5.ltrans.o
                                                  /tmp/cc0IPsVg.ltrans1.ltrans.o
get.lto_priv.106                                  /tmp/cc0IPsVg.ltrans13.ltrans.o
                                                  /tmp/cc0IPsVg.ltrans0.ltrans.o
get_descriptor.lto_priv.101                       /tmp/cc0IPsVg.ltrans8.ltrans.o
                                                  /tmp/cc0IPsVg.ltrans0.ltrans.o
get_fat                                           build/obj/ff.o (symbol from plugin)
get_fattime                                       build/obj/fatfs_diskio.o (symbol from plugin)
                                                  build/obj/ff.o (symbol from plugin)
gett.lto_priv.108                                 /tmp/cc0IPsVg.ltrans13.ltrans.o
                                                  /tmp/cc0IPsVg.ltrans0.ltrans.o
gimbal.lto_priv.138                               /tmp/cc0IPsVg.ltrans0.ltrans.o
                                                  /tmp/cc0IPsVg.ltrans12.ltrans.o
                                                  /tmp/cc0IPsVg.ltrans11.ltrans.o
gimbal_encoder.lto_priv.155                       /tmp/cc0IPsVg.ltrans0.ltrans.o
                                                  /tmp/cc0IPsVg.ltrans10.ltrans.o
gimbal_encoderUpdate.lto_priv.112                 /tmp/cc0IPsVg.ltrans11.ltrans.o
                                                  /tmp/cc0IPsVg.ltrans12.ltrans.o
                                                  /tmp/cc0IPsVg.ltrans0.ltrans.o
gimbal_get                                        build/obj/gimbal.o (symbol from plugin)
                                                  build/obj/shellcfg.o (symbol from plugin)
gimbal_get_error                                  build/obj/gimbal.o (symbol from plugin)
                                                  build/obj/main.o (symbol from plugin)
gimbal_init                                       build/obj/gimbal.o (symbol from plugin)
                                                  build/obj/main.o (symbol from plugin)
gimbal_init_thread.lto_priv.92                    /tmp/cc0IPsVg.ltrans12.ltrans.o
                                                  /tmp/cc0IPsVg.ltrans0.ltrans.o
gimbal_kill                                       /tmp/cc0IPsVg.ltrans11.ltrans.o
                                                  build/obj/gimbal.o (symbol from plugin)
                                                  /tmp/cc0IPsVg.ltrans12.ltrans.o
                                                  /tmp/cc0IPsVg.ltrans0.ltrans.o
                                                  build/obj/main.o (symbol from plugin)
gimbal_thread.lto_priv.93                         /tmp/cc0IPsVg.ltrans12.ltrans.o
                                                  /tmp/cc0IPsVg.ltrans0.ltrans.o
halInit                                           build/obj/hal.o (symbol from plugin)
                                                  build/obj/main.o (symbol from plugin)
hal_lld_init                                      build/obj/hal_lld.o (symbol from plugin)
                                                  build/obj/hal.o (symbol from plugin)
ibnotify.lto_priv.97                              /tmp/cc0IPsVg.ltrans13.ltrans.o
                                                  /tmp/cc0IPsVg.ltrans0.ltrans.o
ibqGetEmptyBufferI                                build/obj/hal_buffers.o (symbol from plugin)
                                                  build/obj/serial_usb.o (symbol from plugin)
ibqGetFullBufferTimeout                           build/obj/hal_buffers.o (symbol from plugin)
ibqGetFullBufferTimeoutS                          /tmp/cc0IPsVg.ltrans2.ltrans.o
                                                  build/obj/hal_buffers.o (symbol from plugin)
                                                  /tmp/cc0IPsVg.ltrans4.ltrans.o
ibqGetTimeout                                     /tmp/cc0IPsVg.ltrans2.ltrans.o
                                                  build/obj/hal_buffers.o (symbol from plugin)
                                                  /tmp/cc0IPsVg.ltrans13.ltrans.o
                                                  build/obj/serial_usb.o (symbol from plugin)
ibqObjectInit                                     build/obj/hal_buffers.o (symbol from plugin)
                                                  build/obj/serial_usb.o (symbol from plugin)
ibqPostFullBufferI                                build/obj/hal_buffers.o (symbol from plugin)
                                                  build/obj/serial_usb.o (symbol from plugin)
ibqReadTimeout                                    /tmp/cc0IPsVg.ltrans4.ltrans.o
                                                  build/obj/hal_buffers.o (symbol from plugin)
                                                  /tmp/cc0IPsVg.ltrans13.ltrans.o
                                                  build/obj/serial_usb.o (symbol from plugin)
ibqReleaseEmptyBuffer                             build/obj/hal_buffers.o (symbol from plugin)
ibqReleaseEmptyBufferS                            /tmp/cc0IPsVg.ltrans2.ltrans.o
                                                  build/obj/hal_buffers.o (symbol from plugin)
                                                  /tmp/cc0IPsVg.ltrans4.ltrans.o
ibqResetI                                         build/obj/hal_buffers.o (symbol from plugin)
                                                  build/obj/serial_usb.o (symbol from plugin)
imuGetData                                        /tmp/cc0IPsVg.ltrans10.ltrans.o
                                                  build/obj/mpu6500.o (symbol from plugin)
                                                  /tmp/cc0IPsVg.ltrans1.ltrans.o
                                                  build/obj/main.o (symbol from plugin)
imuGetDataRaw                                     /tmp/cc0IPsVg.ltrans10.ltrans.o
                                                  build/obj/mpu6500.o (symbol from plugin)
                                                  /tmp/cc0IPsVg.ltrans5.ltrans.o
                                                  build/obj/calibrate_sensor.o (symbol from plugin)
imuInit                                           build/obj/mpu6500.o (symbol from plugin)
                                                  build/obj/main.o (symbol from plugin)
imuTXData.lto_priv.156                            /tmp/cc0IPsVg.ltrans1.ltrans.o
                                                  /tmp/cc0IPsVg.ltrans10.ltrans.o
imu_get                                           build/obj/mpu6500.o (symbol from plugin)
                                                  build/obj/main.o (symbol from plugin)
                                                  build/obj/imu_temp.o (symbol from plugin)
                                                  build/obj/gimbal.o (symbol from plugin)
                                                  build/obj/ist8310.o (symbol from plugin)
                                                  build/obj/shellcfg.o (symbol from plugin)
init_pos_name                                     build/obj/gimbal.o (symbol from plugin)
ist8310_get                                       build/obj/ist8310.o (symbol from plugin)
ist8310_getError                                  build/obj/ist8310.o (symbol from plugin)
ist8310_getValue                                  build/obj/ist8310.o (symbol from plugin)
ist8310_init                                      build/obj/ist8310.o (symbol from plugin)
                                                  build/obj/main.o (symbol from plugin)
ist8310_update                                    build/obj/ist8310.o (symbol from plugin)
                                                  build/obj/main.o (symbol from plugin)
limit_name                                        build/obj/gimbal.o (symbol from plugin)
limit_subname                                     build/obj/gimbal.o (symbol from plugin)
lock_state                                        /tmp/cc0IPsVg.ltrans11.ltrans.o
                                                  build/obj/dbus.o (symbol from plugin)
                                                  /tmp/cc0IPsVg.ltrans10.ltrans.o
logger                                            build/obj/sdlog.o (symbol from plugin)
long_to_string_with_divisor.lto_priv.158          /tmp/cc0IPsVg.ltrans6.ltrans.o
                                                  /tmp/cc0IPsVg.ltrans5.ltrans.o
lp_angle.lto_priv.143                             /tmp/cc0IPsVg.ltrans0.ltrans.o
                                                  /tmp/cc0IPsVg.ltrans11.ltrans.o
lpfilter_apply                                    /tmp/cc0IPsVg.ltrans10.ltrans.o
                                                  build/obj/math_misc.o (symbol from plugin)
                                                  /tmp/cc0IPsVg.ltrans11.ltrans.o
                                                  build/obj/gimbal.o (symbol from plugin)
                                                  build/obj/mpu6500.o (symbol from plugin)
lpfilter_init                                     build/obj/math_misc.o (symbol from plugin)
                                                  build/obj/gimbal.o (symbol from plugin)
                                                  build/obj/mpu6500.o (symbol from plugin)
lpfilter_init.constprop.11                        /tmp/cc0IPsVg.ltrans14.ltrans.o
                                                  /tmp/cc0IPsVg.ltrans1.ltrans.o
                                                  /tmp/cc0IPsVg.ltrans0.ltrans.o
main                                              /tmp/cc0IPsVg.ltrans0.ltrans.o
                                                  build/obj/main.o (symbol from plugin)
                                                  build/obj/crt0_v7m.o
matherr                                           /usr/lib/gcc/arm-none-eabi/4.9.3/../../../arm-none-eabi/lib/armv7e-m/fpu/libm.a(lib_a-s_matherr.o)
                                                  /usr/lib/gcc/arm-none-eabi/4.9.3/../../../arm-none-eabi/lib/armv7e-m/fpu/libm.a(lib_a-wf_sqrt.o)
                                                  /usr/lib/gcc/arm-none-eabi/4.9.3/../../../arm-none-eabi/lib/armv7e-m/fpu/libm.a(lib_a-wf_asin.o)
measured_speed_fuck                               build/obj/feeder.o (symbol from plugin)
memcpy                                            /usr/lib/gcc/arm-none-eabi/4.9.3/../../../arm-none-eabi/lib/armv7e-m/fpu/libg.a(lib_a-memcpy.o)
                                                  /tmp/cc0IPsVg.ltrans13.ltrans.o
                                                  /tmp/cc0IPsVg.ltrans5.ltrans.o
                                                  /tmp/cc0IPsVg.ltrans4.ltrans.o
memset                                            /usr/lib/gcc/arm-none-eabi/4.9.3/../../../arm-none-eabi/lib/armv7e-m/fpu/libg.a(lib_a-memset.o)
                                                  /tmp/cc0IPsVg.ltrans6.ltrans.o
                                                  /tmp/cc0IPsVg.ltrans3.ltrans.o
                                                  /tmp/cc0IPsVg.ltrans1.ltrans.o
                                                  /tmp/cc0IPsVg.ltrans0.ltrans.o
msObjectInit                                      build/obj/memstreams.o (symbol from plugin)
                                                  build/obj/chprintf.o (symbol from plugin)
nan                                               /usr/lib/gcc/arm-none-eabi/4.9.3/../../../arm-none-eabi/lib/armv7e-m/fpu/libm.a(lib_a-s_nan.o)
                                                  /usr/lib/gcc/arm-none-eabi/4.9.3/../../../arm-none-eabi/lib/armv7e-m/fpu/libm.a(lib_a-wf_asin.o)
nextmem.lto_priv.182                              /tmp/cc0IPsVg.ltrans0.ltrans.o
                                                  /tmp/cc0IPsVg.ltrans2.ltrans.o
nvicClearPending                                  build/obj/nvic.o (symbol from plugin)
nvicDisableVector                                 build/obj/nvic.o (symbol from plugin)
                                                  build/obj/uart_lld.o (symbol from plugin)
                                                  build/obj/pwm_lld.o (symbol from plugin)
                                                  build/obj/sdc_lld.o (symbol from plugin)
                                                  build/obj/usb_lld.o (symbol from plugin)
                                                  build/obj/ext_lld_isr.o (symbol from plugin)
                                                  build/obj/can_lld.o (symbol from plugin)
                                                  build/obj/stm32_dma.o (symbol from plugin)
nvicEnableVector                                  build/obj/nvic.o (symbol from plugin)
                                                  build/obj/uart_lld.o (symbol from plugin)
                                                  build/obj/pwm_lld.o (symbol from plugin)
                                                  build/obj/sdc_lld.o (symbol from plugin)
                                                  build/obj/usb_lld.o (symbol from plugin)
                                                  build/obj/ext_lld_isr.o (symbol from plugin)
                                                  build/obj/can_lld.o (symbol from plugin)
                                                  build/obj/st_lld.o (symbol from plugin)
                                                  build/obj/stm32_dma.o (symbol from plugin)
nvicSetSystemHandlerPriority                      build/obj/nvic.o (symbol from plugin)
obnotify.lto_priv.98                              /tmp/cc0IPsVg.ltrans13.ltrans.o
                                                  /tmp/cc0IPsVg.ltrans0.ltrans.o
obqFlush                                          build/obj/hal_buffers.o (symbol from plugin)
obqGetEmptyBufferTimeout                          build/obj/hal_buffers.o (symbol from plugin)
obqGetEmptyBufferTimeoutS                         build/obj/hal_buffers.o (symbol from plugin)
obqGetFullBufferI                                 /tmp/cc0IPsVg.ltrans4.ltrans.o
                                                  build/obj/hal_buffers.o (symbol from plugin)
                                                  /tmp/cc0IPsVg.ltrans13.ltrans.o
                                                  /tmp/cc0IPsVg.ltrans8.ltrans.o
                                                  build/obj/serial_usb.o (symbol from plugin)
obqObjectInit                                     build/obj/hal_buffers.o (symbol from plugin)
                                                  build/obj/serial_usb.o (symbol from plugin)
obqPostFullBuffer                                 build/obj/hal_buffers.o (symbol from plugin)
obqPostFullBufferS                                build/obj/hal_buffers.o (symbol from plugin)
obqPutTimeout                                     /tmp/cc0IPsVg.ltrans4.ltrans.o
                                                  build/obj/hal_buffers.o (symbol from plugin)
                                                  /tmp/cc0IPsVg.ltrans13.ltrans.o
                                                  build/obj/serial_usb.o (symbol from plugin)
obqReleaseEmptyBufferI                            build/obj/hal_buffers.o (symbol from plugin)
                                                  build/obj/serial_usb.o (symbol from plugin)
obqResetI                                         build/obj/hal_buffers.o (symbol from plugin)
                                                  build/obj/serial_usb.o (symbol from plugin)
obqTryFlushI                                      build/obj/hal_buffers.o (symbol from plugin)
                                                  build/obj/serial_usb.o (symbol from plugin)
obqWriteTimeout                                   /tmp/cc0IPsVg.ltrans4.ltrans.o
                                                  build/obj/hal_buffers.o (symbol from plugin)
                                                  /tmp/cc0IPsVg.ltrans13.ltrans.o
                                                  build/obj/serial_usb.o (symbol from plugin)
p_dbus                                            /tmp/cc0IPsVg.ltrans0.ltrans.o
                                                  build/obj/feeder.o (symbol from plugin)
                                                  /tmp/cc0IPsVg.ltrans8.ltrans.o
palReadBus                                        build/obj/pal.o (symbol from plugin)
palSetBusMode                                     build/obj/pal.o (symbol from plugin)
palWriteBus                                       build/obj/pal.o (symbol from plugin)
pal_default_config                                build/obj/board.o (symbol from plugin)
                                                  build/obj/hal.o (symbol from plugin)
param_name.lto_priv.130                           /tmp/cc0IPsVg.ltrans8.ltrans.o
                                                  /tmp/cc0IPsVg.ltrans12.ltrans.o
param_p                                           build/obj/params.o (symbol from plugin)
param_private                                     build/obj/params.o (symbol from plugin)
param_private_flag.lto_priv.122                   /tmp/cc0IPsVg.ltrans0.ltrans.o
                                                  /tmp/cc0IPsVg.ltrans12.ltrans.o
                                                  /tmp/cc0IPsVg.ltrans8.ltrans.o
param_save_flash                                  /tmp/cc0IPsVg.ltrans8.ltrans.o
                                                  build/obj/params.o (symbol from plugin)
                                                  /tmp/cc0IPsVg.ltrans12.ltrans.o
                                                  /tmp/cc0IPsVg.ltrans5.ltrans.o
                                                  build/obj/shellcfg.o (symbol from plugin)
param_valid                                       build/obj/params.o (symbol from plugin)
param_valid_flag.lto_priv.121                     /tmp/cc0IPsVg.ltrans0.ltrans.o
                                                  /tmp/cc0IPsVg.ltrans12.ltrans.o
                                                  /tmp/cc0IPsVg.ltrans8.ltrans.o
params.lto_priv.129                               /tmp/cc0IPsVg.ltrans8.ltrans.o
                                                  /tmp/cc0IPsVg.ltrans12.ltrans.o
params_init                                       build/obj/params.o (symbol from plugin)
                                                  build/obj/main.o (symbol from plugin)
params_set                                        build/obj/params.o (symbol from plugin)
                                                  build/obj/feeder.o (symbol from plugin)
                                                  build/obj/gimbal.o (symbol from plugin)
                                                  build/obj/mpu6500.o (symbol from plugin)
params_set.part.0.lto_priv.111                    /tmp/cc0IPsVg.ltrans8.ltrans.o
                                                  /tmp/cc0IPsVg.ltrans1.ltrans.o
                                                  /tmp/cc0IPsVg.ltrans0.ltrans.o
params_total.lto_priv.126                         /tmp/cc0IPsVg.ltrans8.ltrans.o
                                                  /tmp/cc0IPsVg.ltrans12.ltrans.o
pitch_pos_name                                    build/obj/gimbal.o (symbol from plugin)
pos_pid                                           /tmp/cc0IPsVg.ltrans0.ltrans.o
                                                  build/obj/feeder.o (symbol from plugin)
                                                  /tmp/cc0IPsVg.ltrans8.ltrans.o
power_check()                                     build/obj/main.o (symbol from plugin)
power_failure()                                   build/obj/main.o (symbol from plugin)
put.lto_priv.105                                  /tmp/cc0IPsVg.ltrans13.ltrans.o
                                                  /tmp/cc0IPsVg.ltrans0.ltrans.o
put_fat                                           build/obj/ff.o (symbol from plugin)
putt.lto_priv.107                                 /tmp/cc0IPsVg.ltrans13.ltrans.o
                                                  /tmp/cc0IPsVg.ltrans0.ltrans.o
pwmChangePeriod                                   build/obj/pwm.o (symbol from plugin)
pwmDisableChannel                                 build/obj/pwm.o (symbol from plugin)
pwmDisableChannelNotification                     build/obj/pwm.o (symbol from plugin)
pwmDisablePeriodicNotification                    build/obj/pwm.o (symbol from plugin)
pwmEnableChannel                                  build/obj/pwm.o (symbol from plugin)
                                                  build/obj/imu_temp.o (symbol from plugin)
pwmEnableChannel.constprop.46                     /tmp/cc0IPsVg.ltrans14.ltrans.o
                                                  /tmp/cc0IPsVg.ltrans8.ltrans.o
pwmEnableChannelNotification                      build/obj/pwm.o (symbol from plugin)
pwmEnablePeriodicNotification                     build/obj/pwm.o (symbol from plugin)
pwmInit                                           build/obj/pwm.o (symbol from plugin)
                                                  build/obj/hal.o (symbol from plugin)
pwmObjectInit                                     build/obj/pwm.o (symbol from plugin)
                                                  build/obj/pwm_lld.o (symbol from plugin)
pwmStart                                          build/obj/pwm.o (symbol from plugin)
                                                  build/obj/imu_temp.o (symbol from plugin)
pwmStop                                           build/obj/pwm.o (symbol from plugin)
pwm_lld_disable_channel                           build/obj/pwm_lld.o (symbol from plugin)
                                                  build/obj/pwm.o (symbol from plugin)
pwm_lld_disable_channel_notification              build/obj/pwm_lld.o (symbol from plugin)
                                                  build/obj/pwm.o (symbol from plugin)
pwm_lld_disable_periodic_notification             build/obj/pwm_lld.o (symbol from plugin)
                                                  build/obj/pwm.o (symbol from plugin)
pwm_lld_enable_channel                            build/obj/pwm_lld.o (symbol from plugin)
                                                  build/obj/pwm.o (symbol from plugin)
pwm_lld_enable_channel_notification               build/obj/pwm_lld.o (symbol from plugin)
                                                  build/obj/pwm.o (symbol from plugin)
pwm_lld_enable_periodic_notification              build/obj/pwm_lld.o (symbol from plugin)
                                                  build/obj/pwm.o (symbol from plugin)
pwm_lld_init                                      build/obj/pwm_lld.o (symbol from plugin)
                                                  build/obj/pwm.o (symbol from plugin)
pwm_lld_serve_interrupt                           build/obj/pwm_lld.o (symbol from plugin)
pwm_lld_start                                     build/obj/pwm_lld.o (symbol from plugin)
                                                  build/obj/pwm.o (symbol from plugin)
pwm_lld_stop                                      build/obj/pwm_lld.o (symbol from plugin)
                                                  build/obj/pwm.o (symbol from plugin)
pwm_thd.lto_priv.91                               /tmp/cc0IPsVg.ltrans8.ltrans.o
                                                  /tmp/cc0IPsVg.ltrans0.ltrans.o
rc                                                /tmp/cc0IPsVg.ltrans0.ltrans.o
                                                  build/obj/shoot_pwm.o (symbol from plugin)
                                                  /tmp/cc0IPsVg.ltrans8.ltrans.o
rc.lto_priv.90                                    /tmp/cc0IPsVg.ltrans0.ltrans.o
                                                  /tmp/cc0IPsVg.ltrans12.ltrans.o
read.lto_priv.104                                 /tmp/cc0IPsVg.ltrans13.ltrans.o
                                                  /tmp/cc0IPsVg.ltrans0.ltrans.o
readt.lto_priv.110                                /tmp/cc0IPsVg.ltrans13.ltrans.o
                                                  /tmp/cc0IPsVg.ltrans0.ltrans.o
rxend.lto_priv.152                                /tmp/cc0IPsVg.ltrans10.ltrans.o
                                                  /tmp/cc0IPsVg.ltrans11.ltrans.o
scalbnf                                           /usr/lib/gcc/arm-none-eabi/4.9.3/../../../arm-none-eabi/lib/armv7e-m/fpu/libm.a(lib_a-sf_scalbn.o)
                                                  /usr/lib/gcc/arm-none-eabi/4.9.3/../../../arm-none-eabi/lib/armv7e-m/fpu/libm.a(lib_a-kf_rem_pio2.o)
sdcConnect                                        /tmp/cc0IPsVg.ltrans4.ltrans.o
                                                  build/obj/sdc.o (symbol from plugin)
                                                  /tmp/cc0IPsVg.ltrans0.ltrans.o
                                                  build/obj/sdlog.o (symbol from plugin)
sdcDisconnect                                     /tmp/cc0IPsVg.ltrans13.ltrans.o
                                                  build/obj/sdc.o (symbol from plugin)
                                                  /tmp/cc0IPsVg.ltrans0.ltrans.o
sdcErase                                          build/obj/sdc.o (symbol from plugin)
sdcGetAndClearErrors                              build/obj/sdc.o (symbol from plugin)
sdcGetInfo                                        /tmp/cc0IPsVg.ltrans13.ltrans.o
                                                  build/obj/sdc.o (symbol from plugin)
                                                  /tmp/cc0IPsVg.ltrans0.ltrans.o
sdcInit                                           build/obj/sdc.o (symbol from plugin)
                                                  build/obj/hal.o (symbol from plugin)
sdcObjectInit                                     build/obj/sdc.o (symbol from plugin)
                                                  build/obj/sdc_lld.o (symbol from plugin)
sdcRead                                           /tmp/cc0IPsVg.ltrans13.ltrans.o
                                                  build/obj/sdc.o (symbol from plugin)
                                                  /tmp/cc0IPsVg.ltrans0.ltrans.o
                                                  build/obj/fatfs_diskio.o (symbol from plugin)
sdcStart                                          build/obj/sdc.o (symbol from plugin)
                                                  build/obj/sdlog.o (symbol from plugin)
sdcStop                                           build/obj/sdc.o (symbol from plugin)
sdcSync                                           /tmp/cc0IPsVg.ltrans13.ltrans.o
                                                  build/obj/sdc.o (symbol from plugin)
                                                  /tmp/cc0IPsVg.ltrans0.ltrans.o
sdcWrite                                          /tmp/cc0IPsVg.ltrans13.ltrans.o
                                                  build/obj/sdc.o (symbol from plugin)
                                                  /tmp/cc0IPsVg.ltrans0.ltrans.o
                                                  build/obj/fatfs_diskio.o (symbol from plugin)
sdc_lld_collect_errors.isra.0.lto_priv.165        /tmp/cc0IPsVg.ltrans6.ltrans.o
                                                  /tmp/cc0IPsVg.ltrans7.ltrans.o
                                                  /tmp/cc0IPsVg.ltrans4.ltrans.o
sdc_lld_error_cleanup.lto_priv.160                /tmp/cc0IPsVg.ltrans7.ltrans.o
                                                  /tmp/cc0IPsVg.ltrans6.ltrans.o
sdc_lld_init                                      build/obj/sdc_lld.o (symbol from plugin)
                                                  build/obj/sdc.o (symbol from plugin)
sdc_lld_is_card_inserted                          /tmp/cc0IPsVg.ltrans6.ltrans.o
                                                  build/obj/board.o (symbol from plugin)
                                                  /tmp/cc0IPsVg.ltrans0.ltrans.o
                                                  build/obj/sdc.o (symbol from plugin)
sdc_lld_is_write_protected                        /tmp/cc0IPsVg.ltrans6.ltrans.o
                                                  build/obj/board.o (symbol from plugin)
                                                  /tmp/cc0IPsVg.ltrans0.ltrans.o
                                                  build/obj/fatfs_diskio.o (symbol from plugin)
                                                  build/obj/sdc.o (symbol from plugin)
sdc_lld_read                                      build/obj/sdc_lld.o (symbol from plugin)
                                                  build/obj/sdc.o (symbol from plugin)
sdc_lld_read_aligned                              build/obj/sdc_lld.o (symbol from plugin)
sdc_lld_read_aligned.part.4.lto_priv.174          /tmp/cc0IPsVg.ltrans6.ltrans.o
                                                  /tmp/cc0IPsVg.ltrans13.ltrans.o
sdc_lld_read_special                              /tmp/cc0IPsVg.ltrans6.ltrans.o
                                                  build/obj/sdc_lld.o (symbol from plugin)
                                                  /tmp/cc0IPsVg.ltrans4.ltrans.o
                                                  build/obj/sdc.o (symbol from plugin)
sdc_lld_send_cmd_long_crc                         /tmp/cc0IPsVg.ltrans6.ltrans.o
                                                  build/obj/sdc_lld.o (symbol from plugin)
                                                  /tmp/cc0IPsVg.ltrans4.ltrans.o
                                                  build/obj/sdc.o (symbol from plugin)
sdc_lld_send_cmd_none                             build/obj/sdc_lld.o (symbol from plugin)
                                                  build/obj/sdc.o (symbol from plugin)
sdc_lld_send_cmd_short                            build/obj/sdc_lld.o (symbol from plugin)
                                                  build/obj/sdc.o (symbol from plugin)
sdc_lld_send_cmd_short_crc                        /tmp/cc0IPsVg.ltrans6.ltrans.o
                                                  build/obj/sdc_lld.o (symbol from plugin)
                                                  /tmp/cc0IPsVg.ltrans7.ltrans.o
                                                  /tmp/cc0IPsVg.ltrans4.ltrans.o
                                                  build/obj/sdc.o (symbol from plugin)
sdc_lld_set_bus_mode                              build/obj/sdc_lld.o (symbol from plugin)
                                                  build/obj/sdc.o (symbol from plugin)
sdc_lld_set_data_clk                              build/obj/sdc_lld.o (symbol from plugin)
                                                  build/obj/sdc.o (symbol from plugin)
sdc_lld_start                                     build/obj/sdc_lld.o (symbol from plugin)
                                                  build/obj/sdc.o (symbol from plugin)
sdc_lld_start_clk                                 build/obj/sdc_lld.o (symbol from plugin)
                                                  build/obj/sdc.o (symbol from plugin)
sdc_lld_stop                                      build/obj/sdc_lld.o (symbol from plugin)
                                                  build/obj/sdc.o (symbol from plugin)
sdc_lld_stop_clk                                  build/obj/sdc_lld.o (symbol from plugin)
                                                  build/obj/sdc.o (symbol from plugin)
sdc_lld_sync                                      build/obj/sdc_lld.o (symbol from plugin)
                                                  build/obj/sdc.o (symbol from plugin)
sdc_lld_wait_transaction_end.lto_priv.159         /tmp/cc0IPsVg.ltrans7.ltrans.o
                                                  /tmp/cc0IPsVg.ltrans6.ltrans.o
sdc_lld_write                                     build/obj/sdc_lld.o (symbol from plugin)
                                                  build/obj/sdc.o (symbol from plugin)
sdc_lld_write_aligned                             build/obj/sdc_lld.o (symbol from plugin)
sdc_lld_write_aligned.part.5.lto_priv.173         /tmp/cc0IPsVg.ltrans6.ltrans.o
                                                  /tmp/cc0IPsVg.ltrans13.ltrans.o
sdlog_createFile                                  build/obj/sdlog.o (symbol from plugin)
sdlog_getError                                    build/obj/sdlog.o (symbol from plugin)
sdlog_init                                        build/obj/sdlog.o (symbol from plugin)
sdlog_put                                         build/obj/sdlog.o (symbol from plugin)
sduConfigureHookI                                 build/obj/serial_usb.o (symbol from plugin)
                                                  build/obj/usbcfg.o (symbol from plugin)
sduDataReceived                                   /tmp/cc0IPsVg.ltrans13.ltrans.o
                                                  build/obj/serial_usb.o (symbol from plugin)
                                                  /tmp/cc0IPsVg.ltrans8.ltrans.o
                                                  build/obj/usbcfg.o (symbol from plugin)
sduDataTransmitted                                /tmp/cc0IPsVg.ltrans13.ltrans.o
                                                  build/obj/serial_usb.o (symbol from plugin)
                                                  /tmp/cc0IPsVg.ltrans8.ltrans.o
                                                  build/obj/usbcfg.o (symbol from plugin)
sduDisconnectI                                    build/obj/serial_usb.o (symbol from plugin)
                                                  build/obj/usbcfg.o (symbol from plugin)
sduInit                                           build/obj/serial_usb.o (symbol from plugin)
                                                  build/obj/hal.o (symbol from plugin)
sduInterruptTransmitted                           /tmp/cc0IPsVg.ltrans3.ltrans.o
                                                  build/obj/serial_usb.o (symbol from plugin)
                                                  /tmp/cc0IPsVg.ltrans8.ltrans.o
                                                  build/obj/usbcfg.o (symbol from plugin)
sduObjectInit                                     build/obj/serial_usb.o (symbol from plugin)
                                                  build/obj/shellcfg.o (symbol from plugin)
sduRequestsHook                                   /tmp/cc0IPsVg.ltrans13.ltrans.o
                                                  build/obj/serial_usb.o (symbol from plugin)
                                                  /tmp/cc0IPsVg.ltrans0.ltrans.o
                                                  build/obj/usbcfg.o (symbol from plugin)
sduSOFHookI                                       build/obj/serial_usb.o (symbol from plugin)
                                                  build/obj/usbcfg.o (symbol from plugin)
sduStart                                          build/obj/serial_usb.o (symbol from plugin)
                                                  build/obj/shellcfg.o (symbol from plugin)
sduStop                                           build/obj/serial_usb.o (symbol from plugin)
sdu_start_receive.lto_priv.123                    /tmp/cc0IPsVg.ltrans13.ltrans.o
                                                  /tmp/cc0IPsVg.ltrans8.ltrans.o
serusbcfg                                         build/obj/usbcfg.o (symbol from plugin)
                                                  build/obj/shellcfg.o (symbol from plugin)
set_speed                                         build/obj/feeder.o (symbol from plugin)
shellCreate                                       build/obj/shell.o (symbol from plugin)
shellCreateStatic                                 build/obj/shell.o (symbol from plugin)
                                                  build/obj/shellcfg.o (symbol from plugin)
shellExit                                         build/obj/shell.o (symbol from plugin)
shellGetLine                                      build/obj/shell.o (symbol from plugin)
shellInit                                         build/obj/shell.o (symbol from plugin)
                                                  build/obj/shellcfg.o (symbol from plugin)
shellStart                                        build/obj/shellcfg.o (symbol from plugin)
                                                  build/obj/main.o (symbol from plugin)
shell_terminated                                  /tmp/cc0IPsVg.ltrans0.ltrans.o
                                                  build/obj/shell.o (symbol from plugin)
                                                  /tmp/cc0IPsVg.ltrans6.ltrans.o
shell_thread.lto_priv.96                          /tmp/cc0IPsVg.ltrans6.ltrans.o
                                                  /tmp/cc0IPsVg.ltrans0.ltrans.o
shooter_control                                   build/obj/shoot_pwm.o (symbol from plugin)
shooter_init                                      build/obj/shoot_pwm.o (symbol from plugin)
                                                  build/obj/main.o (symbol from plugin)
sinf                                              /usr/lib/gcc/arm-none-eabi/4.9.3/../../../arm-none-eabi/lib/armv7e-m/fpu/libm.a(lib_a-sf_sin.o)
                                                  /tmp/cc0IPsVg.ltrans12.ltrans.o
                                                  /tmp/cc0IPsVg.ltrans1.ltrans.o
sof_handler.lto_priv.102                          /tmp/cc0IPsVg.ltrans8.ltrans.o
                                                  /tmp/cc0IPsVg.ltrans0.ltrans.o
speed_sp                                          build/obj/feeder.o (symbol from plugin)
spiAcquireBus                                     /tmp/cc0IPsVg.ltrans3.ltrans.o
                                                  build/obj/spi.o (symbol from plugin)
                                                  /tmp/cc0IPsVg.ltrans10.ltrans.o
                                                  /tmp/cc0IPsVg.ltrans1.ltrans.o
                                                  build/obj/ist8310.o (symbol from plugin)
                                                  build/obj/mpu6500.o (symbol from plugin)
spiExchange                                       build/obj/spi.o (symbol from plugin)
spiIgnore                                         build/obj/spi.o (symbol from plugin)
spiInit                                           build/obj/spi.o (symbol from plugin)
                                                  build/obj/hal.o (symbol from plugin)
spiObjectInit                                     build/obj/spi.o (symbol from plugin)
                                                  build/obj/spi_lld.o (symbol from plugin)
spiReceive                                        /tmp/cc0IPsVg.ltrans3.ltrans.o
                                                  build/obj/spi.o (symbol from plugin)
                                                  /tmp/cc0IPsVg.ltrans10.ltrans.o
                                                  /tmp/cc0IPsVg.ltrans1.ltrans.o
                                                  build/obj/ist8310.o (symbol from plugin)
                                                  build/obj/mpu6500.o (symbol from plugin)
spiReleaseBus                                     /tmp/cc0IPsVg.ltrans3.ltrans.o
                                                  build/obj/spi.o (symbol from plugin)
                                                  /tmp/cc0IPsVg.ltrans10.ltrans.o
                                                  /tmp/cc0IPsVg.ltrans1.ltrans.o
                                                  build/obj/ist8310.o (symbol from plugin)
                                                  build/obj/mpu6500.o (symbol from plugin)
spiSelect                                         /tmp/cc0IPsVg.ltrans3.ltrans.o
                                                  build/obj/spi.o (symbol from plugin)
                                                  /tmp/cc0IPsVg.ltrans10.ltrans.o
                                                  /tmp/cc0IPsVg.ltrans1.ltrans.o
                                                  build/obj/ist8310.o (symbol from plugin)
                                                  build/obj/mpu6500.o (symbol from plugin)
spiSend                                           /tmp/cc0IPsVg.ltrans3.ltrans.o
                                                  build/obj/spi.o (symbol from plugin)
                                                  /tmp/cc0IPsVg.ltrans10.ltrans.o
                                                  /tmp/cc0IPsVg.ltrans1.ltrans.o
                                                  build/obj/ist8310.o (symbol from plugin)
                                                  build/obj/mpu6500.o (symbol from plugin)
spiStart                                          build/obj/spi.o (symbol from plugin)
                                                  build/obj/mpu6500.o (symbol from plugin)
spiStartExchange                                  build/obj/spi.o (symbol from plugin)
spiStartIgnore                                    build/obj/spi.o (symbol from plugin)
spiStartReceive                                   build/obj/spi.o (symbol from plugin)
spiStartSend                                      build/obj/spi.o (symbol from plugin)
spiStop                                           build/obj/spi.o (symbol from plugin)
spiUnselect                                       /tmp/cc0IPsVg.ltrans3.ltrans.o
                                                  build/obj/spi.o (symbol from plugin)
                                                  /tmp/cc0IPsVg.ltrans10.ltrans.o
                                                  /tmp/cc0IPsVg.ltrans1.ltrans.o
                                                  build/obj/ist8310.o (symbol from plugin)
                                                  build/obj/mpu6500.o (symbol from plugin)
spi_lld_exchange                                  build/obj/spi_lld.o (symbol from plugin)
                                                  build/obj/spi.o (symbol from plugin)
spi_lld_ignore                                    build/obj/spi_lld.o (symbol from plugin)
                                                  build/obj/spi.o (symbol from plugin)
spi_lld_init                                      build/obj/spi_lld.o (symbol from plugin)
                                                  build/obj/spi.o (symbol from plugin)
spi_lld_polled_exchange                           build/obj/spi_lld.o (symbol from plugin)
spi_lld_receive                                   build/obj/spi_lld.o (symbol from plugin)
                                                  build/obj/spi.o (symbol from plugin)
spi_lld_select                                    build/obj/spi_lld.o (symbol from plugin)
                                                  build/obj/spi.o (symbol from plugin)
spi_lld_send                                      build/obj/spi_lld.o (symbol from plugin)
                                                  build/obj/spi.o (symbol from plugin)
spi_lld_serve_rx_interrupt.lto_priv.117           /tmp/cc0IPsVg.ltrans6.ltrans.o
                                                  /tmp/cc0IPsVg.ltrans1.ltrans.o
spi_lld_serve_tx_interrupt.lto_priv.118           /tmp/cc0IPsVg.ltrans6.ltrans.o
                                                  /tmp/cc0IPsVg.ltrans1.ltrans.o
spi_lld_start                                     build/obj/spi_lld.o (symbol from plugin)
                                                  build/obj/spi.o (symbol from plugin)
spi_lld_stop                                      build/obj/spi_lld.o (symbol from plugin)
                                                  build/obj/spi.o (symbol from plugin)
spi_lld_unselect                                  build/obj/spi_lld.o (symbol from plugin)
                                                  build/obj/spi.o (symbol from plugin)
sqrtf                                             /usr/lib/gcc/arm-none-eabi/4.9.3/../../../arm-none-eabi/lib/armv7e-m/fpu/libm.a(lib_a-wf_sqrt.o)
                                                  /tmp/cc0IPsVg.ltrans12.ltrans.o
                                                  /tmp/cc0IPsVg.ltrans1.ltrans.o
stGetAlarm                                        build/obj/st.o (symbol from plugin)
stInit                                            build/obj/st.o (symbol from plugin)
                                                  build/obj/hal.o (symbol from plugin)
stSetAlarm                                        /tmp/cc0IPsVg.ltrans2.ltrans.o
                                                  build/obj/st.o (symbol from plugin)
                                                  /tmp/cc0IPsVg.ltrans9.ltrans.o
                                                  build/obj/chvt.o (symbol from plugin)
                                                  build/obj/chsys.o (symbol from plugin)
stStartAlarm                                      build/obj/st.o (symbol from plugin)
                                                  build/obj/chvt.o (symbol from plugin)
stStopAlarm                                       build/obj/st.o (symbol from plugin)
                                                  build/obj/chvt.o (symbol from plugin)
                                                  build/obj/chsys.o (symbol from plugin)
st_lld_init                                       build/obj/st_lld.o (symbol from plugin)
                                                  build/obj/st.o (symbol from plugin)
stm32_clock_init                                  build/obj/hal_lld.o (symbol from plugin)
                                                  build/obj/board.o (symbol from plugin)
strcmp                                            /usr/lib/gcc/arm-none-eabi/4.9.3/../../../arm-none-eabi/lib/armv7e-m/fpu/libg.a(lib_a-strcmp.o)
                                                  /tmp/cc0IPsVg.ltrans12.ltrans.o
                                                  /tmp/cc0IPsVg.ltrans6.ltrans.o
                                                  /tmp/cc0IPsVg.ltrans5.ltrans.o
strlen                                            /usr/lib/gcc/arm-none-eabi/4.9.3/../../../arm-none-eabi/lib/armv7e-m/fpu/libg.a(lib_a-strlen.o)
                                                  /tmp/cc0IPsVg.ltrans12.ltrans.o
strpbrk                                           /usr/lib/gcc/arm-none-eabi/4.9.3/../../../arm-none-eabi/lib/armv7e-m/fpu/libg.a(lib_a-strpbrk.o)
                                                  /tmp/cc0IPsVg.ltrans14.ltrans.o
strspn                                            /usr/lib/gcc/arm-none-eabi/4.9.3/../../../arm-none-eabi/lib/armv7e-m/fpu/libg.a(lib_a-strspn.o)
                                                  /tmp/cc0IPsVg.ltrans14.ltrans.o
subname_accl                                      build/obj/gimbal.o (symbol from plugin)
subname_axis                                      build/obj/gimbal.o (symbol from plugin)
subname_ff                                        build/obj/gimbal.o (symbol from plugin)
subparam_name.lto_priv.131                        /tmp/cc0IPsVg.ltrans8.ltrans.o
                                                  /tmp/cc0IPsVg.ltrans12.ltrans.o
subparams.lto_priv.128                            /tmp/cc0IPsVg.ltrans8.ltrans.o
                                                  /tmp/cc0IPsVg.ltrans12.ltrans.o
subparams_total.lto_priv.127                      /tmp/cc0IPsVg.ltrans8.ltrans.o
                                                  /tmp/cc0IPsVg.ltrans12.ltrans.o
tanf                                              /usr/lib/gcc/arm-none-eabi/4.9.3/../../../arm-none-eabi/lib/armv7e-m/fpu/libm.a(lib_a-sf_tan.o)
                                                  /tmp/cc0IPsVg.ltrans14.ltrans.o
                                                  /tmp/cc0IPsVg.ltrans12.ltrans.o
tempControllerInit                                build/obj/imu_temp.o (symbol from plugin)
                                                  build/obj/main.o (symbol from plugin)
tempPID1                                          /tmp/cc0IPsVg.ltrans8.ltrans.o
                                                  build/obj/imu_temp.o (symbol from plugin)
                                                  /tmp/cc0IPsVg.ltrans10.ltrans.o
tempPID_Init                                      build/obj/imu_temp.o (symbol from plugin)
tempPID_Update                                    build/obj/imu_temp.o (symbol from plugin)
turn_angle                                        build/obj/feeder.o (symbol from plugin)
uartInit                                          build/obj/uart.o (symbol from plugin)
                                                  build/obj/hal.o (symbol from plugin)
uartObjectInit                                    build/obj/uart.o (symbol from plugin)
                                                  build/obj/uart_lld.o (symbol from plugin)
uartReceiveTimeout                                build/obj/uart.o (symbol from plugin)
uartSendFullTimeout                               build/obj/uart.o (symbol from plugin)
uartSendTimeout                                   build/obj/uart.o (symbol from plugin)
uartStart                                         build/obj/uart.o (symbol from plugin)
                                                  build/obj/dbus.o (symbol from plugin)
uartStartReceive                                  build/obj/uart.o (symbol from plugin)
                                                  build/obj/dbus.o (symbol from plugin)
uartStartReceiveI                                 build/obj/uart.o (symbol from plugin)
uartStartSend                                     build/obj/uart.o (symbol from plugin)
uartStartSendI                                    build/obj/uart.o (symbol from plugin)
uartStop                                          build/obj/uart.o (symbol from plugin)
uartStopReceive                                   build/obj/uart.o (symbol from plugin)
                                                  build/obj/dbus.o (symbol from plugin)
uartStopReceiveI                                  build/obj/uart.o (symbol from plugin)
uartStopSend                                      build/obj/uart.o (symbol from plugin)
uartStopSendI                                     build/obj/uart.o (symbol from plugin)
uart_dbus_thread.lto_priv.94                      /tmp/cc0IPsVg.ltrans11.ltrans.o
                                                  /tmp/cc0IPsVg.ltrans0.ltrans.o
uart_dbus_thread_handler.lto_priv.153             /tmp/cc0IPsVg.ltrans11.ltrans.o
                                                  /tmp/cc0IPsVg.ltrans10.ltrans.o
uart_lld_init                                     build/obj/uart_lld.o (symbol from plugin)
                                                  build/obj/uart.o (symbol from plugin)
uart_lld_serve_rx_end_irq.lto_priv.150            /tmp/cc0IPsVg.ltrans6.ltrans.o
                                                  /tmp/cc0IPsVg.ltrans11.ltrans.o
uart_lld_serve_tx_end_irq.lto_priv.151            /tmp/cc0IPsVg.ltrans6.ltrans.o
                                                  /tmp/cc0IPsVg.ltrans11.ltrans.o
uart_lld_start                                    build/obj/uart_lld.o (symbol from plugin)
                                                  build/obj/uart.o (symbol from plugin)
uart_lld_start_receive                            build/obj/uart_lld.o (symbol from plugin)
                                                  build/obj/uart.o (symbol from plugin)
uart_lld_start_send                               build/obj/uart_lld.o (symbol from plugin)
                                                  build/obj/uart.o (symbol from plugin)
uart_lld_stop                                     build/obj/uart_lld.o (symbol from plugin)
                                                  build/obj/uart.o (symbol from plugin)
uart_lld_stop_receive                             build/obj/uart_lld.o (symbol from plugin)
                                                  build/obj/uart.o (symbol from plugin)
uart_lld_stop_send                                build/obj/uart_lld.o (symbol from plugin)
                                                  build/obj/uart.o (symbol from plugin)
update_time                                       build/obj/dbus.o (symbol from plugin)
usbDisableEndpointsI                              build/obj/usb.o (symbol from plugin)
usbInit                                           build/obj/usb.o (symbol from plugin)
                                                  build/obj/hal.o (symbol from plugin)
usbInitEndpointI                                  /tmp/cc0IPsVg.ltrans3.ltrans.o
                                                  build/obj/usb.o (symbol from plugin)
                                                  /tmp/cc0IPsVg.ltrans8.ltrans.o
                                                  build/obj/usbcfg.o (symbol from plugin)
usbObjectInit                                     build/obj/usb.o (symbol from plugin)
                                                  build/obj/usb_lld.o (symbol from plugin)
usbStallReceiveI                                  build/obj/usb.o (symbol from plugin)
usbStallTransmitI                                 build/obj/usb.o (symbol from plugin)
usbStart                                          build/obj/usb.o (symbol from plugin)
                                                  build/obj/shellcfg.o (symbol from plugin)
usbStartReceiveI                                  /tmp/cc0IPsVg.ltrans3.ltrans.o
                                                  build/obj/usb.o (symbol from plugin)
                                                  /tmp/cc0IPsVg.ltrans13.ltrans.o
                                                  /tmp/cc0IPsVg.ltrans9.ltrans.o
                                                  build/obj/serial_usb.o (symbol from plugin)
usbStartTransmitI                                 /tmp/cc0IPsVg.ltrans3.ltrans.o
                                                  build/obj/usb.o (symbol from plugin)
                                                  /tmp/cc0IPsVg.ltrans13.ltrans.o
                                                  /tmp/cc0IPsVg.ltrans9.ltrans.o
                                                  /tmp/cc0IPsVg.ltrans8.ltrans.o
                                                  build/obj/serial_usb.o (symbol from plugin)
usbStop                                           build/obj/usb.o (symbol from plugin)
usb_event.lto_priv.100                            /tmp/cc0IPsVg.ltrans8.ltrans.o
                                                  /tmp/cc0IPsVg.ltrans0.ltrans.o
usb_lld_clear_in                                  build/obj/usb_lld.o (symbol from plugin)
                                                  build/obj/usb.o (symbol from plugin)
usb_lld_clear_out                                 build/obj/usb_lld.o (symbol from plugin)
                                                  build/obj/usb.o (symbol from plugin)
usb_lld_disable_endpoints                         build/obj/usb_lld.o (symbol from plugin)
                                                  build/obj/usb.o (symbol from plugin)
usb_lld_get_status_in                             build/obj/usb_lld.o (symbol from plugin)
                                                  build/obj/usb.o (symbol from plugin)
usb_lld_get_status_out                            build/obj/usb_lld.o (symbol from plugin)
                                                  build/obj/usb.o (symbol from plugin)
usb_lld_init                                      build/obj/usb_lld.o (symbol from plugin)
                                                  build/obj/usb.o (symbol from plugin)
usb_lld_init_endpoint                             build/obj/usb_lld.o (symbol from plugin)
                                                  build/obj/usb.o (symbol from plugin)
usb_lld_pump                                      /tmp/cc0IPsVg.ltrans7.ltrans.o
                                                  build/obj/usb_lld.o (symbol from plugin)
                                                  /tmp/cc0IPsVg.ltrans0.ltrans.o
usb_lld_read_setup                                build/obj/usb_lld.o (symbol from plugin)
                                                  build/obj/usb.o (symbol from plugin)
usb_lld_reset                                     build/obj/usb_lld.o (symbol from plugin)
                                                  build/obj/usb.o (symbol from plugin)
usb_lld_set_address                               build/obj/usb_lld.o (symbol from plugin)
                                                  build/obj/usb.o (symbol from plugin)
usb_lld_stall_in                                  build/obj/usb_lld.o (symbol from plugin)
                                                  build/obj/usb.o (symbol from plugin)
usb_lld_stall_out                                 build/obj/usb_lld.o (symbol from plugin)
                                                  build/obj/usb.o (symbol from plugin)
usb_lld_start                                     build/obj/usb_lld.o (symbol from plugin)
                                                  build/obj/usb.o (symbol from plugin)
usb_lld_start_in                                  /tmp/cc0IPsVg.ltrans7.ltrans.o
                                                  build/obj/usb_lld.o (symbol from plugin)
                                                  /tmp/cc0IPsVg.ltrans3.ltrans.o
                                                  build/obj/usb.o (symbol from plugin)
usb_lld_start_out                                 /tmp/cc0IPsVg.ltrans7.ltrans.o
                                                  build/obj/usb_lld.o (symbol from plugin)
                                                  /tmp/cc0IPsVg.ltrans3.ltrans.o
                                                  build/obj/usb.o (symbol from plugin)
usb_lld_stop                                      build/obj/usb_lld.o (symbol from plugin)
                                                  build/obj/usb.o (symbol from plugin)
usbcfg                                            build/obj/usbcfg.o (symbol from plugin)
                                                  build/obj/shellcfg.o (symbol from plugin)
vel_pid                                           /tmp/cc0IPsVg.ltrans0.ltrans.o
                                                  build/obj/feeder.o (symbol from plugin)
                                                  /tmp/cc0IPsVg.ltrans8.ltrans.o
wdgInit                                           build/obj/wdg.o (symbol from plugin)
                                                  build/obj/hal.o (symbol from plugin)
wdgReset                                          build/obj/wdg.o (symbol from plugin)
                                                  build/obj/main.o (symbol from plugin)
wdgStart                                          build/obj/wdg.o (symbol from plugin)
                                                  build/obj/main.o (symbol from plugin)
wdgStop                                           build/obj/wdg.o (symbol from plugin)
wdg_lld_init                                      build/obj/wdg_lld.o (symbol from plugin)
                                                  build/obj/wdg.o (symbol from plugin)
wdg_lld_reset                                     build/obj/wdg_lld.o (symbol from plugin)
                                                  build/obj/wdg.o (symbol from plugin)
wdg_lld_start                                     build/obj/wdg_lld.o (symbol from plugin)
                                                  build/obj/wdg.o (symbol from plugin)
wdg_lld_stop                                      build/obj/wdg_lld.o (symbol from plugin)
                                                  build/obj/wdg.o (symbol from plugin)
write.lto_priv.103                                /tmp/cc0IPsVg.ltrans13.ltrans.o
                                                  /tmp/cc0IPsVg.ltrans0.ltrans.o
writet.lto_priv.109                               /tmp/cc0IPsVg.ltrans13.ltrans.o
                                                  /tmp/cc0IPsVg.ltrans0.ltrans.o
yaw_pos_name                                      build/obj/gimbal.o (symbol from plugin)
